
out.elf:     file format elf32-tradlittlemips


Disassembly of section .config_BFC02FF0:

bfc02ff0 <__config_BFC02FF0>:
bfc02ff0:	ff ff fe fa                                         ....

Disassembly of section .config_BFC02FF4:

bfc02ff4 <__config_BFC02FF4>:
bfc02ff4:	d9 79 f8 ff                                         .y..

Disassembly of section .config_BFC02FF8:

bfc02ff8 <__config_BFC02FF8>:
bfc02ff8:	db ce 6c ff                                         ..l.

Disassembly of section .config_BFC02FFC:

bfc02ffc <__config_BFC02FFC>:
bfc02ffc:	ff ff ff 7e                                         ...~

Disassembly of section .reset:

bd001970 <_reset>:
bd001970:	0f40065e 	jal	bd001978 <_startup>
bd001974:	00000000 	nop

bd001978 <_startup>:
bd001978:	401a6000 	mfc0	k0,c0_status
bd00197c:	7f5a04c0 	ext	k0,k0,0x13,0x1
bd001980:	13400005 	beqz	k0,bd001998 <_no_nmi>
bd001984:	00000000 	nop
bd001988:	3c1a9d00 	lui	k0,0x9d00
bd00198c:	275a5324 	addiu	k0,k0,21284
bd001990:	03400008 	jr	k0
bd001994:	00000000 	nop

bd001998 <_no_nmi>:
bd001998:	3c1da002 	lui	sp,0xa002
bd00199c:	27bdfff0 	addiu	sp,sp,-16
bd0019a0:	3c1ca000 	lui	gp,0xa000
bd0019a4:	279c7ff0 	addiu	gp,gp,32752
bd0019a8:	40096002 	mfc0	t1,c0_srsctl
bd0019ac:	01205820 	add	t3,t1,zero
bd0019b0:	7d2a1e80 	ext	t2,t1,0x1a,0x4
bd0019b4:	7d494984 	ins	t1,t2,0x6,0x4
bd0019b8:	40896002 	mtc0	t1,c0_srsctl
bd0019bc:	000000c0 	ehb
bd0019c0:	41dce000 	wrpgpr	gp,gp
bd0019c4:	408b6002 	mtc0	t3,c0_srsctl
bd0019c8:	000000c0 	ehb
bd0019cc:	3c089d00 	lui	t0,0x9d00
bd0019d0:	2508538c 	addiu	t0,t0,21388
bd0019d4:	0100f809 	jalr	t0
bd0019d8:	00000000 	nop

bd0019dc <_start_bss_init>:
bd0019dc:	3c08a000 	lui	t0,0xa000
bd0019e0:	25080008 	addiu	t0,t0,8
bd0019e4:	3c09a000 	lui	t1,0xa000
bd0019e8:	25290014 	addiu	t1,t1,20
bd0019ec:	10000006 	b	bd001a08 <_bss_check>
bd0019f0:	00000000 	nop

bd0019f4 <_bss_init>:
bd0019f4:	ad000000 	sw	zero,0(t0)
bd0019f8:	ad000004 	sw	zero,4(t0)
bd0019fc:	ad000008 	sw	zero,8(t0)
bd001a00:	ad00000c 	sw	zero,12(t0)
bd001a04:	25080010 	addiu	t0,t0,16

bd001a08 <_bss_check>:
bd001a08:	0109082b 	sltu	at,t0,t1
bd001a0c:	1420fff9 	bnez	at,bd0019f4 <_bss_init>
bd001a10:	00000000 	nop
bd001a14:	3c089d00 	lui	t0,0x9d00
bd001a18:	25084c98 	addiu	t0,t0,19608
bd001a1c:	0100f809 	jalr	t0
bd001a20:	00000000 	nop
bd001a24:	3c090000 	lui	t1,0x0
bd001a28:	25290000 	addiu	t1,t1,0
bd001a2c:	11200010 	beqz	t1,bd001a70 <_ramfunc_done>
bd001a30:	00000000 	nop
bd001a34:	3c090002 	lui	t1,0x2
bd001a38:	25290000 	addiu	t1,t1,0
bd001a3c:	3c0abf88 	lui	t2,0xbf88
bd001a40:	254a2010 	addiu	t2,t2,8208
bd001a44:	ad490000 	sw	t1,0(t2)
bd001a48:	3c090002 	lui	t1,0x2
bd001a4c:	25290000 	addiu	t1,t1,0
bd001a50:	3c0abf88 	lui	t2,0xbf88
bd001a54:	254a2020 	addiu	t2,t2,8224
bd001a58:	ad490000 	sw	t1,0(t2)
bd001a5c:	3c090002 	lui	t1,0x2
bd001a60:	25290000 	addiu	t1,t1,0
bd001a64:	3c0abf88 	lui	t2,0xbf88
bd001a68:	254a2030 	addiu	t2,t2,8240
bd001a6c:	ad490000 	sw	t1,0(t2)

bd001a70 <_ramfunc_done>:
bd001a70:	40804800 	mtc0	zero,c0_count
bd001a74:	240affff 	li	t2,-1
bd001a78:	408a5800 	mtc0	t2,c0_compare
bd001a7c:	3c080040 	lui	t0,0x40
bd001a80:	400a6000 	mfc0	t2,c0_status
bd001a84:	010a5025 	or	t2,t0,t2
bd001a88:	408a6000 	mtc0	t2,c0_status
bd001a8c:	3c099d00 	lui	t1,0x9d00
bd001a90:	25290000 	addiu	t1,t1,0
bd001a94:	000000c0 	ehb
bd001a98:	40897801 	mtc0	t1,c0_ebase
bd001a9c:	3c090000 	lui	t1,0x0
bd001aa0:	25290001 	addiu	t1,t1,1
bd001aa4:	240a0000 	li	t2,0
bd001aa8:	7d2a4944 	ins	t2,t1,0x5,0x5
bd001aac:	408a6001 	mtc0	t2,c0_intctl
bd001ab0:	3c090080 	lui	t1,0x80
bd001ab4:	40896800 	mtc0	t1,c0_cause
bd001ab8:	40088000 	mfc0	t0,c0_config
bd001abc:	7d090580 	ext	t1,t0,0x16,0x1
bd001ac0:	00094c40 	sll	t1,t1,0x11
bd001ac4:	40086000 	mfc0	t0,c0_status
bd001ac8:	3c010058 	lui	at,0x58
bd001acc:	01014024 	and	t0,t0,at
bd001ad0:	01284025 	or	t0,t1,t0
bd001ad4:	40886000 	mtc0	t0,c0_status
bd001ad8:	000000c0 	ehb
bd001adc:	3c089d00 	lui	t0,0x9d00
bd001ae0:	25085394 	addiu	t0,t0,21396
bd001ae4:	0100f809 	jalr	t0
bd001ae8:	00000000 	nop
bd001aec:	40086000 	mfc0	t0,c0_status
bd001af0:	3c01ffbf 	lui	at,0xffbf
bd001af4:	3421ffff 	ori	at,at,0xffff
bd001af8:	01014024 	and	t0,t0,at
bd001afc:	40886000 	mtc0	t0,c0_status
bd001b00:	30840000 	andi	a0,a0,0x0
bd001b04:	30a50000 	andi	a1,a1,0x0
bd001b08:	3c089d00 	lui	t0,0x9d00
bd001b0c:	25085038 	addiu	t0,t0,20536
bd001b10:	01000008 	jr	t0
bd001b14:	00000000 	nop

Disassembly of section .bev_excpt:

bd001cf0 <_bev_exception>:
bd001cf0:	3c1a9d00 	lui	k0,0x9d00
bd001cf4:	275a5124 	addiu	k0,k0,20772
bd001cf8:	03400008 	jr	k0
bd001cfc:	00000000 	nop

Disassembly of section .app_excpt:

9d000180 <_gen_exception>:
9d000180:	3c1a9d00 	lui	k0,0x9d00
9d000184:	275a479c 	addiu	k0,k0,18332
9d000188:	03400008 	jr	k0
9d00018c:	00000000 	nop

Disassembly of section .vector_0:

9d000200 <__vector_dispatch_0>:
9d000200:	0b40146d 	j	9d0051b4 <.LFE0>
9d000204:	00000000 	nop

Disassembly of section .vector_1:

9d000220 <__vector_dispatch_1>:
9d000220:	0b40146d 	j	9d0051b4 <.LFE0>
9d000224:	00000000 	nop

Disassembly of section .vector_2:

9d000240 <__vector_dispatch_2>:
9d000240:	0b40146d 	j	9d0051b4 <.LFE0>
9d000244:	00000000 	nop

Disassembly of section .vector_3:

9d000260 <__vector_dispatch_3>:
9d000260:	0b40146d 	j	9d0051b4 <.LFE0>
9d000264:	00000000 	nop

Disassembly of section .vector_4:

9d000280 <__vector_dispatch_4>:
9d000280:	0b400df1 	j	9d0037c4 <Timer1ISR>
9d000284:	00000000 	nop

Disassembly of section .vector_5:

9d0002a0 <__vector_dispatch_5>:
9d0002a0:	0b40146d 	j	9d0051b4 <.LFE0>
9d0002a4:	00000000 	nop

Disassembly of section .vector_6:

9d0002c0 <__vector_dispatch_6>:
9d0002c0:	0b40146d 	j	9d0051b4 <.LFE0>
9d0002c4:	00000000 	nop

Disassembly of section .vector_7:

9d0002e0 <__vector_dispatch_7>:
9d0002e0:	0b40146d 	j	9d0051b4 <.LFE0>
9d0002e4:	00000000 	nop

Disassembly of section .vector_8:

9d000300 <__vector_dispatch_8>:
9d000300:	0b40146d 	j	9d0051b4 <.LFE0>
9d000304:	00000000 	nop

Disassembly of section .vector_9:

9d000320 <__vector_dispatch_9>:
9d000320:	0b40146d 	j	9d0051b4 <.LFE0>
9d000324:	00000000 	nop

Disassembly of section .vector_10:

9d000340 <__vector_dispatch_10>:
9d000340:	0b40146d 	j	9d0051b4 <.LFE0>
9d000344:	00000000 	nop

Disassembly of section .vector_11:

9d000360 <__vector_dispatch_11>:
9d000360:	0b40146d 	j	9d0051b4 <.LFE0>
9d000364:	00000000 	nop

Disassembly of section .vector_12:

9d000380 <__vector_dispatch_12>:
9d000380:	0b40146d 	j	9d0051b4 <.LFE0>
9d000384:	00000000 	nop

Disassembly of section .vector_13:

9d0003a0 <__vector_dispatch_13>:
9d0003a0:	0b40146d 	j	9d0051b4 <.LFE0>
9d0003a4:	00000000 	nop

Disassembly of section .vector_14:

9d0003c0 <__vector_dispatch_14>:
9d0003c0:	0b40146d 	j	9d0051b4 <.LFE0>
9d0003c4:	00000000 	nop

Disassembly of section .vector_15:

9d0003e0 <__vector_dispatch_15>:
9d0003e0:	0b40146d 	j	9d0051b4 <.LFE0>
9d0003e4:	00000000 	nop

Disassembly of section .vector_16:

9d000400 <__vector_dispatch_16>:
9d000400:	0b40146d 	j	9d0051b4 <.LFE0>
9d000404:	00000000 	nop

Disassembly of section .vector_17:

9d000420 <__vector_dispatch_17>:
9d000420:	0b40146d 	j	9d0051b4 <.LFE0>
9d000424:	00000000 	nop

Disassembly of section .vector_18:

9d000440 <__vector_dispatch_18>:
9d000440:	0b40146d 	j	9d0051b4 <.LFE0>
9d000444:	00000000 	nop

Disassembly of section .vector_19:

9d000460 <__vector_dispatch_19>:
9d000460:	0b40146d 	j	9d0051b4 <.LFE0>
9d000464:	00000000 	nop

Disassembly of section .vector_20:

9d000480 <__vector_dispatch_20>:
9d000480:	0b40146d 	j	9d0051b4 <.LFE0>
9d000484:	00000000 	nop

Disassembly of section .vector_21:

9d0004a0 <__vector_dispatch_21>:
9d0004a0:	0b40146d 	j	9d0051b4 <.LFE0>
9d0004a4:	00000000 	nop

Disassembly of section .vector_22:

9d0004c0 <__vector_dispatch_22>:
9d0004c0:	0b40146d 	j	9d0051b4 <.LFE0>
9d0004c4:	00000000 	nop

Disassembly of section .vector_23:

9d0004e0 <__vector_dispatch_23>:
9d0004e0:	0b40146d 	j	9d0051b4 <.LFE0>
9d0004e4:	00000000 	nop

Disassembly of section .vector_24:

9d000500 <__vector_dispatch_24>:
9d000500:	0b40146d 	j	9d0051b4 <.LFE0>
9d000504:	00000000 	nop

Disassembly of section .vector_25:

9d000520 <__vector_dispatch_25>:
9d000520:	0b40146d 	j	9d0051b4 <.LFE0>
9d000524:	00000000 	nop

Disassembly of section .vector_26:

9d000540 <__vector_dispatch_26>:
9d000540:	0b40146d 	j	9d0051b4 <.LFE0>
9d000544:	00000000 	nop

Disassembly of section .vector_27:

9d000560 <__vector_dispatch_27>:
9d000560:	0b40146d 	j	9d0051b4 <.LFE0>
9d000564:	00000000 	nop

Disassembly of section .vector_28:

9d000580 <__vector_dispatch_28>:
9d000580:	0b40146d 	j	9d0051b4 <.LFE0>
9d000584:	00000000 	nop

Disassembly of section .vector_29:

9d0005a0 <__vector_dispatch_29>:
9d0005a0:	0b40146d 	j	9d0051b4 <.LFE0>
9d0005a4:	00000000 	nop

Disassembly of section .vector_30:

9d0005c0 <__vector_dispatch_30>:
9d0005c0:	0b40146d 	j	9d0051b4 <.LFE0>
9d0005c4:	00000000 	nop

Disassembly of section .vector_31:

9d0005e0 <__vector_dispatch_31>:
9d0005e0:	0b40146d 	j	9d0051b4 <.LFE0>
9d0005e4:	00000000 	nop

Disassembly of section .vector_32:

9d000600 <__vector_dispatch_32>:
9d000600:	0b40146d 	j	9d0051b4 <.LFE0>
9d000604:	00000000 	nop

Disassembly of section .vector_33:

9d000620 <__vector_dispatch_33>:
9d000620:	0b40146d 	j	9d0051b4 <.LFE0>
9d000624:	00000000 	nop

Disassembly of section .vector_34:

9d000640 <__vector_dispatch_34>:
9d000640:	0b40146d 	j	9d0051b4 <.LFE0>
9d000644:	00000000 	nop

Disassembly of section .vector_35:

9d000660 <__vector_dispatch_35>:
9d000660:	0b40146d 	j	9d0051b4 <.LFE0>
9d000664:	00000000 	nop

Disassembly of section .vector_36:

9d000680 <__vector_dispatch_36>:
9d000680:	0b40146d 	j	9d0051b4 <.LFE0>
9d000684:	00000000 	nop

Disassembly of section .vector_37:

9d0006a0 <__vector_dispatch_37>:
9d0006a0:	0b40146d 	j	9d0051b4 <.LFE0>
9d0006a4:	00000000 	nop

Disassembly of section .vector_38:

9d0006c0 <__vector_dispatch_38>:
9d0006c0:	0b40146d 	j	9d0051b4 <.LFE0>
9d0006c4:	00000000 	nop

Disassembly of section .vector_39:

9d0006e0 <__vector_dispatch_39>:
9d0006e0:	0b40146d 	j	9d0051b4 <.LFE0>
9d0006e4:	00000000 	nop

Disassembly of section .vector_40:

9d000700 <__vector_dispatch_40>:
9d000700:	0b40146d 	j	9d0051b4 <.LFE0>
9d000704:	00000000 	nop

Disassembly of section .vector_41:

9d000720 <__vector_dispatch_41>:
9d000720:	0b40146d 	j	9d0051b4 <.LFE0>
9d000724:	00000000 	nop

Disassembly of section .vector_42:

9d000740 <__vector_dispatch_42>:
9d000740:	0b40146d 	j	9d0051b4 <.LFE0>
9d000744:	00000000 	nop

Disassembly of section .vector_43:

9d000760 <__vector_dispatch_43>:
9d000760:	0b40146d 	j	9d0051b4 <.LFE0>
9d000764:	00000000 	nop

Disassembly of section .vector_44:

9d000780 <__vector_dispatch_44>:
9d000780:	0b40146d 	j	9d0051b4 <.LFE0>
9d000784:	00000000 	nop

Disassembly of section .vector_45:

9d0007a0 <__vector_dispatch_45>:
9d0007a0:	0b40146d 	j	9d0051b4 <.LFE0>
9d0007a4:	00000000 	nop

Disassembly of section .vector_46:

9d0007c0 <__vector_dispatch_46>:
9d0007c0:	0b40146d 	j	9d0051b4 <.LFE0>
9d0007c4:	00000000 	nop

Disassembly of section .vector_47:

9d0007e0 <__vector_dispatch_47>:
9d0007e0:	0b40146d 	j	9d0051b4 <.LFE0>
9d0007e4:	00000000 	nop

Disassembly of section .vector_48:

9d000800 <__vector_dispatch_48>:
9d000800:	0b40146d 	j	9d0051b4 <.LFE0>
9d000804:	00000000 	nop

Disassembly of section .vector_49:

9d000820 <__vector_dispatch_49>:
9d000820:	0b40146d 	j	9d0051b4 <.LFE0>
9d000824:	00000000 	nop

Disassembly of section .vector_50:

9d000840 <__vector_dispatch_50>:
9d000840:	0b40146d 	j	9d0051b4 <.LFE0>
9d000844:	00000000 	nop

Disassembly of section .vector_51:

9d000860 <__vector_dispatch_51>:
9d000860:	0b40146d 	j	9d0051b4 <.LFE0>
9d000864:	00000000 	nop

Disassembly of section ._debug_exception:

bfc00480 <__DbgExecReturn>:
bfc00480:	409bf800 	mtc0	k1,c0_desave
bfc00484:	000000c0 	ehb
bfc00488:	3c1b9d00 	lui	k1,0x9d00
bfc0048c:	277b51fc 	addiu	k1,k1,20988
bfc00490:	13600002 	beqz	k1,bfc0049c <__DbgExecReturn+0x1c>
bfc00494:	00000000 	nop
bfc00498:	409bc000 	mtc0	k1,c0_depc
bfc0049c:	401bf800 	mfc0	k1,c0_desave
bfc004a0:	000000c0 	ehb
bfc004a4:	4200001f 	deret
bfc004a8:	00000000 	nop

Disassembly of section .text._do_print_cdfFnopuxX:

9d001e00 <_do_print_cdfFnopuxX>:
9d001e00:	27bdff58 	addiu	sp,sp,-168
9d001e04:	afbf00a4 	sw	ra,164(sp)
9d001e08:	afbe00a0 	sw	s8,160(sp)
9d001e0c:	afb7009c 	sw	s7,156(sp)
9d001e10:	afb60098 	sw	s6,152(sp)
9d001e14:	afb50094 	sw	s5,148(sp)
9d001e18:	afb40090 	sw	s4,144(sp)
9d001e1c:	afb3008c 	sw	s3,140(sp)
9d001e20:	afb20088 	sw	s2,136(sp)
9d001e24:	afb10084 	sw	s1,132(sp)
9d001e28:	afb00080 	sw	s0,128(sp)
9d001e2c:	afa400a8 	sw	a0,168(sp)
9d001e30:	8c820018 	lw	v0,24(a0)
9d001e34:	00a09021 	move	s2,a1
9d001e38:	24050001 	li	a1,1
9d001e3c:	8c420010 	lw	v0,16(v0)
9d001e40:	0040f809 	jalr	v0
9d001e44:	afa600b0 	sw	a2,176(sp)
9d001e48:	104001a5 	beqz	v0,9d0024e0 <_do_print_cdfFnopuxX+0x6e0>
9d001e4c:	27a20058 	addiu	v0,sp,88
9d001e50:	afa00068 	sw	zero,104(sp)
9d001e54:	afa20060 	sw	v0,96(sp)
9d001e58:	82440000 	lb	a0,0(s2)
9d001e5c:	1080000d 	beqz	a0,9d001e94 <_do_print_cdfFnopuxX+0x94>
9d001e60:	26500001 	addiu	s0,s2,1
9d001e64:	24020025 	li	v0,37
9d001e68:	5082001c 	beql	a0,v0,9d001edc <_do_print_cdfFnopuxX+0xdc>
9d001e6c:	82460001 	lb	a2,1(s2)
9d001e70:	0f401288 	jal	9d004a20 <.LFE0>
9d001e74:	8fa500a8 	lw	a1,168(sp)
9d001e78:	8fa30068 	lw	v1,104(sp)
9d001e7c:	24630001 	addiu	v1,v1,1
9d001e80:	afa30068 	sw	v1,104(sp)
9d001e84:	02009021 	move	s2,s0
9d001e88:	82440000 	lb	a0,0(s2)
9d001e8c:	1480fff5 	bnez	a0,9d001e64 <_do_print_cdfFnopuxX+0x64>
9d001e90:	26500001 	addiu	s0,s2,1
9d001e94:	8fa400a8 	lw	a0,168(sp)
9d001e98:	94820010 	lhu	v0,16(a0)
9d001e9c:	30420040 	andi	v0,v0,0x40
9d001ea0:	14400190 	bnez	v0,9d0024e4 <_do_print_cdfFnopuxX+0x6e4>
9d001ea4:	2402ffff 	li	v0,-1
9d001ea8:	8fa20068 	lw	v0,104(sp)
9d001eac:	8fbf00a4 	lw	ra,164(sp)
9d001eb0:	8fbe00a0 	lw	s8,160(sp)
9d001eb4:	8fb7009c 	lw	s7,156(sp)
9d001eb8:	8fb60098 	lw	s6,152(sp)
9d001ebc:	8fb50094 	lw	s5,148(sp)
9d001ec0:	8fb40090 	lw	s4,144(sp)
9d001ec4:	8fb3008c 	lw	s3,140(sp)
9d001ec8:	8fb20088 	lw	s2,136(sp)
9d001ecc:	8fb10084 	lw	s1,132(sp)
9d001ed0:	8fb00080 	lw	s0,128(sp)
9d001ed4:	03e00008 	jr	ra
9d001ed8:	27bd00a8 	addiu	sp,sp,168
9d001edc:	10c40174 	beq	a2,a0,9d0024b0 <_do_print_cdfFnopuxX+0x6b0>
9d001ee0:	0000b821 	move	s7,zero
9d001ee4:	2402002d 	li	v0,45
9d001ee8:	2403002b 	li	v1,43
9d001eec:	24040020 	li	a0,32
9d001ef0:	24050023 	li	a1,35
9d001ef4:	10c2000e 	beq	a2,v0,9d001f30 <_do_print_cdfFnopuxX+0x130>
9d001ef8:	24070030 	li	a3,48
9d001efc:	50c30010 	beql	a2,v1,9d001f40 <_do_print_cdfFnopuxX+0x140>
9d001f00:	36f70002 	ori	s7,s7,0x2
9d001f04:	50c40011 	beql	a2,a0,9d001f4c <_do_print_cdfFnopuxX+0x14c>
9d001f08:	36f70001 	ori	s7,s7,0x1
9d001f0c:	50c50012 	beql	a2,a1,9d001f58 <_do_print_cdfFnopuxX+0x158>
9d001f10:	36f70800 	ori	s7,s7,0x800
9d001f14:	54c70013 	bnel	a2,a3,9d001f64 <_do_print_cdfFnopuxX+0x164>
9d001f18:	2402002a 	li	v0,42
9d001f1c:	36f70004 	ori	s7,s7,0x4
9d001f20:	26100001 	addiu	s0,s0,1
9d001f24:	82060000 	lb	a2,0(s0)
9d001f28:	14c2fff4 	bne	a2,v0,9d001efc <_do_print_cdfFnopuxX+0xfc>
9d001f2c:	00000000 	nop
9d001f30:	36f70008 	ori	s7,s7,0x8
9d001f34:	26100001 	addiu	s0,s0,1
9d001f38:	0b4007ca 	j	9d001f28 <_do_print_cdfFnopuxX+0x128>
9d001f3c:	82060000 	lb	a2,0(s0)
9d001f40:	26100001 	addiu	s0,s0,1
9d001f44:	0b4007ca 	j	9d001f28 <_do_print_cdfFnopuxX+0x128>
9d001f48:	82060000 	lb	a2,0(s0)
9d001f4c:	26100001 	addiu	s0,s0,1
9d001f50:	0b4007ca 	j	9d001f28 <_do_print_cdfFnopuxX+0x128>
9d001f54:	82060000 	lb	a2,0(s0)
9d001f58:	26100001 	addiu	s0,s0,1
9d001f5c:	0b4007ca 	j	9d001f28 <_do_print_cdfFnopuxX+0x128>
9d001f60:	82060000 	lb	a2,0(s0)
9d001f64:	10c20141 	beq	a2,v0,9d00246c <_do_print_cdfFnopuxX+0x66c>
9d001f68:	02001821 	move	v1,s0
9d001f6c:	24c2ffd0 	addiu	v0,a2,-48
9d001f70:	2c42000a 	sltiu	v0,v0,10
9d001f74:	1040000b 	beqz	v0,9d001fa4 <_do_print_cdfFnopuxX+0x1a4>
9d001f78:	0000b021 	move	s6,zero
9d001f7c:	00161040 	sll	v0,s6,0x1
9d001f80:	001648c0 	sll	t1,s6,0x3
9d001f84:	00494821 	addu	t1,v0,t1
9d001f88:	26100001 	addiu	s0,s0,1
9d001f8c:	01264821 	addu	t1,t1,a2
9d001f90:	82060000 	lb	a2,0(s0)
9d001f94:	24c2ffd0 	addiu	v0,a2,-48
9d001f98:	2c42000a 	sltiu	v0,v0,10
9d001f9c:	1440fff7 	bnez	v0,9d001f7c <_do_print_cdfFnopuxX+0x17c>
9d001fa0:	2536ffd0 	addiu	s6,t1,-48
9d001fa4:	2402002e 	li	v0,46
9d001fa8:	10c2011c 	beq	a2,v0,9d00241c <_do_print_cdfFnopuxX+0x61c>
9d001fac:	241effff 	li	s8,-1
9d001fb0:	24020068 	li	v0,104
9d001fb4:	10c20107 	beq	a2,v0,9d0023d4 <_do_print_cdfFnopuxX+0x5d4>
9d001fb8:	2402006c 	li	v0,108
9d001fbc:	10c20135 	beq	a2,v0,9d002494 <_do_print_cdfFnopuxX+0x694>
9d001fc0:	24020071 	li	v0,113
9d001fc4:	10c20142 	beq	a2,v0,9d0024d0 <_do_print_cdfFnopuxX+0x6d0>
9d001fc8:	2402004c 	li	v0,76
9d001fcc:	50c201c9 	beql	a2,v0,9d0026f4 <_do_print_cdfFnopuxX+0x8f4>
9d001fd0:	82060001 	lb	a2,1(s0)
9d001fd4:	32e30002 	andi	v1,s7,0x2
9d001fd8:	32e2fffe 	andi	v0,s7,0xfffe
9d001fdc:	0043b80b 	movn	s7,v0,v1
9d001fe0:	24c2ffbc 	addiu	v0,a2,-68
9d001fe4:	32e50008 	andi	a1,s7,0x8
9d001fe8:	32e4fffb 	andi	a0,s7,0xfffb
9d001fec:	2c430035 	sltiu	v1,v0,53
9d001ff0:	26120001 	addiu	s2,s0,1
9d001ff4:	10600107 	beqz	v1,9d002414 <_do_print_cdfFnopuxX+0x614>
9d001ff8:	0085b80b 	movn	s7,a0,a1
9d001ffc:	00021080 	sll	v0,v0,0x2
9d002000:	3c049d00 	lui	a0,0x9d00
9d002004:	24842018 	addiu	a0,a0,8216
9d002008:	00821021 	addu	v0,a0,v0
9d00200c:	8c420000 	lw	v0,0(v0)
9d002010:	00400008 	jr	v0
9d002014:	00000000 	nop
9d002018:	9d0023c0 	0x9d0023c0
9d00201c:	9d002414 	0x9d002414
9d002020:	9d00237c 	0x9d00237c
9d002024:	9d002414 	0x9d002414
9d002028:	9d002414 	0x9d002414
9d00202c:	9d002414 	0x9d002414
9d002030:	9d002414 	0x9d002414
9d002034:	9d002414 	0x9d002414
9d002038:	9d002414 	0x9d002414
9d00203c:	9d002414 	0x9d002414
9d002040:	9d002414 	0x9d002414
9d002044:	9d002668 	0x9d002668
9d002048:	9d00236c 	0x9d00236c
9d00204c:	9d002414 	0x9d002414
9d002050:	9d002414 	0x9d002414
9d002054:	9d002414 	0x9d002414
9d002058:	9d002414 	0x9d002414
9d00205c:	9d0022a0 	0x9d0022a0
9d002060:	9d002414 	0x9d002414
9d002064:	9d002414 	0x9d002414
9d002068:	9d0020ec 	0x9d0020ec
9d00206c:	9d002414 	0x9d002414
9d002070:	9d002414 	0x9d002414
9d002074:	9d002414 	0x9d002414
9d002078:	9d002414 	0x9d002414
9d00207c:	9d002414 	0x9d002414
9d002080:	9d002414 	0x9d002414
9d002084:	9d002414 	0x9d002414
9d002088:	9d002414 	0x9d002414
9d00208c:	9d002414 	0x9d002414
9d002090:	9d002414 	0x9d002414
9d002094:	9d002604 	0x9d002604
9d002098:	9d0023c4 	0x9d0023c4
9d00209c:	9d002414 	0x9d002414
9d0020a0:	9d002380 	0x9d002380
9d0020a4:	9d002414 	0x9d002414
9d0020a8:	9d002414 	0x9d002414
9d0020ac:	9d0023c4 	0x9d0023c4
9d0020b0:	9d002414 	0x9d002414
9d0020b4:	9d002414 	0x9d002414
9d0020b8:	9d002414 	0x9d002414
9d0020bc:	9d002414 	0x9d002414
9d0020c0:	9d002548 	0x9d002548
9d0020c4:	9d002540 	0x9d002540
9d0020c8:	9d002370 	0x9d002370
9d0020cc:	9d002414 	0x9d002414
9d0020d0:	9d002414 	0x9d002414
9d0020d4:	9d002590 	0x9d002590
9d0020d8:	9d002414 	0x9d002414
9d0020dc:	9d0022a4 	0x9d0022a4
9d0020e0:	9d002414 	0x9d002414
9d0020e4:	9d002414 	0x9d002414
9d0020e8:	9d0020f0 	0x9d0020f0
9d0020ec:	36f70020 	ori	s7,s7,0x20
9d0020f0:	24100010 	li	s0,16
9d0020f4:	2402ffff 	li	v0,-1
9d0020f8:	13c2006f 	beq	s8,v0,9d0022b8 <_do_print_cdfFnopuxX+0x4b8>
9d0020fc:	00002821 	move	a1,zero
9d002100:	32f7fffb 	andi	s7,s7,0xfffb
9d002104:	27c5ffff 	addiu	a1,s8,-1
9d002108:	32e200c0 	andi	v0,s7,0xc0
9d00210c:	1040006e 	beqz	v0,9d0022c8 <_do_print_cdfFnopuxX+0x4c8>
9d002110:	afa2006c 	sw	v0,108(sp)
9d002114:	7c171620 	seh	v0,s7
9d002118:	04400180 	bltz	v0,9d00271c <_do_print_cdfFnopuxX+0x91c>
9d00211c:	32e20010 	andi	v0,s7,0x10
9d002120:	14400102 	bnez	v0,9d00252c <_do_print_cdfFnopuxX+0x72c>
9d002124:	8fa200b0 	lw	v0,176(sp)
9d002128:	32e20041 	andi	v0,s7,0x41
9d00212c:	104001a8 	beqz	v0,9d0027d0 <_do_print_cdfFnopuxX+0x9d0>
9d002130:	8fa400b0 	lw	a0,176(sp)
9d002134:	8fa300b0 	lw	v1,176(sp)
9d002138:	8c750000 	lw	s5,0(v1)
9d00213c:	24630004 	addiu	v1,v1,4
9d002140:	afa300b0 	sw	v1,176(sp)
9d002144:	0015a7c3 	sra	s4,s5,0x1f
9d002148:	0683006d 	bgezl	s4,9d002300 <_do_print_cdfFnopuxX+0x500>
9d00214c:	afa00074 	sw	zero,116(sp)
9d002150:	00156823 	negu	t5,s5
9d002154:	000d102b 	sltu	v0,zero,t5
9d002158:	00146023 	negu	t4,s4
9d00215c:	01a0a821 	move	s5,t5
9d002160:	0182a023 	subu	s4,t4,v0
9d002164:	24020001 	li	v0,1
9d002168:	12800067 	beqz	s4,9d002308 <_do_print_cdfFnopuxX+0x508>
9d00216c:	afa20074 	sw	v0,116(sp)
9d002170:	02b41025 	or	v0,s5,s4
9d002174:	104001ac 	beqz	v0,9d002828 <_do_print_cdfFnopuxX+0xa28>
9d002178:	27a20057 	addiu	v0,sp,87
9d00217c:	afa20070 	sw	v0,112(sp)
9d002180:	32e30020 	andi	v1,s7,0x20
9d002184:	24040037 	li	a0,55
9d002188:	00108fc3 	sra	s1,s0,0x1f
9d00218c:	00409821 	move	s3,v0
9d002190:	24020057 	li	v0,87
9d002194:	0043200a 	movz	a0,v0,v1
9d002198:	afa40064 	sw	a0,100(sp)
9d00219c:	02a02021 	move	a0,s5
9d0021a0:	02802821 	move	a1,s4
9d0021a4:	02003021 	move	a2,s0
9d0021a8:	0f400ba5 	jal	9d002e94 <__umoddi3>
9d0021ac:	02203821 	move	a3,s1
9d0021b0:	2843000a 	slti	v1,v0,10
9d0021b4:	24460030 	addiu	a2,v0,48
9d0021b8:	8fa40064 	lw	a0,100(sp)
9d0021bc:	00441021 	addu	v0,v0,a0
9d0021c0:	0043300a 	movz	a2,v0,v1
9d0021c4:	2673ffff 	addiu	s3,s3,-1
9d0021c8:	02a02021 	move	a0,s5
9d0021cc:	02802821 	move	a1,s4
9d0021d0:	a2660001 	sb	a2,1(s3)
9d0021d4:	02003021 	move	a2,s0
9d0021d8:	0f400cbe 	jal	9d0032f8 <__udivdi3>
9d0021dc:	02203821 	move	a3,s1
9d0021e0:	00622025 	or	a0,v1,v0
9d0021e4:	0040a821 	move	s5,v0
9d0021e8:	0060a021 	move	s4,v1
9d0021ec:	1480ffeb 	bnez	a0,9d00219c <_do_print_cdfFnopuxX+0x39c>
9d0021f0:	27deffff 	addiu	s8,s8,-1
9d0021f4:	27c5ffff 	addiu	a1,s8,-1
9d0021f8:	04a0000a 	bltz	a1,9d002224 <_do_print_cdfFnopuxX+0x424>
9d0021fc:	02601021 	move	v0,s3
9d002200:	2664ffff 	addiu	a0,s3,-1
9d002204:	00852023 	subu	a0,a0,a1
9d002208:	24030030 	li	v1,48
9d00220c:	a0430000 	sb	v1,0(v0)
9d002210:	2442ffff 	addiu	v0,v0,-1
9d002214:	5444fffe 	bnel	v0,a0,9d002210 <_do_print_cdfFnopuxX+0x410>
9d002218:	a0430000 	sb	v1,0(v0)
9d00221c:	00052827 	nor	a1,zero,a1
9d002220:	02659821 	addu	s3,s3,a1
9d002224:	32e20004 	andi	v0,s7,0x4
9d002228:	14400112 	bnez	v0,9d002674 <_do_print_cdfFnopuxX+0x874>
9d00222c:	32e40800 	andi	a0,s7,0x800
9d002230:	3084ffff 	andi	a0,a0,0xffff
9d002234:	50800007 	beqzl	a0,9d002254 <_do_print_cdfFnopuxX+0x454>
9d002238:	8fa3006c 	lw	v1,108(sp)
9d00223c:	24020008 	li	v0,8
9d002240:	1202012f 	beq	s0,v0,9d002700 <_do_print_cdfFnopuxX+0x900>
9d002244:	24020010 	li	v0,16
9d002248:	12020153 	beq	s0,v0,9d002798 <_do_print_cdfFnopuxX+0x998>
9d00224c:	32e40020 	andi	a0,s7,0x20
9d002250:	8fa3006c 	lw	v1,108(sp)
9d002254:	10600007 	beqz	v1,9d002274 <_do_print_cdfFnopuxX+0x474>
9d002258:	8fa40074 	lw	a0,116(sp)
9d00225c:	14800121 	bnez	a0,9d0026e4 <_do_print_cdfFnopuxX+0x8e4>
9d002260:	32e20002 	andi	v0,s7,0x2
9d002264:	10400003 	beqz	v0,9d002274 <_do_print_cdfFnopuxX+0x474>
9d002268:	2402002b 	li	v0,43
9d00226c:	a2620000 	sb	v0,0(s3)
9d002270:	2673ffff 	addiu	s3,s3,-1
9d002274:	26650001 	addiu	a1,s3,1
9d002278:	afb70010 	sw	s7,16(sp)
9d00227c:	8fa400a8 	lw	a0,168(sp)
9d002280:	8fa20060 	lw	v0,96(sp)
9d002284:	00453023 	subu	a2,v0,a1
9d002288:	0f4010e0 	jal	9d004380 <_outcnvrt>
9d00228c:	02c03821 	move	a3,s6
9d002290:	8fa30068 	lw	v1,104(sp)
9d002294:	00621821 	addu	v1,v1,v0
9d002298:	0b400796 	j	9d001e58 <_do_print_cdfFnopuxX+0x58>
9d00229c:	afa30068 	sw	v1,104(sp)
9d0022a0:	36f70010 	ori	s7,s7,0x10
9d0022a4:	32f7f7ff 	andi	s7,s7,0xf7ff
9d0022a8:	2402ffff 	li	v0,-1
9d0022ac:	17c2ff94 	bne	s8,v0,9d002100 <_do_print_cdfFnopuxX+0x300>
9d0022b0:	2410000a 	li	s0,10
9d0022b4:	00002821 	move	a1,zero
9d0022b8:	241e0001 	li	s8,1
9d0022bc:	32e200c0 	andi	v0,s7,0xc0
9d0022c0:	1440ff94 	bnez	v0,9d002114 <_do_print_cdfFnopuxX+0x314>
9d0022c4:	afa2006c 	sw	v0,108(sp)
9d0022c8:	7c171620 	seh	v0,s7
9d0022cc:	0440011b 	bltz	v0,9d00273c <_do_print_cdfFnopuxX+0x93c>
9d0022d0:	32e20010 	andi	v0,s7,0x10
9d0022d4:	1440008f 	bnez	v0,9d002514 <_do_print_cdfFnopuxX+0x714>
9d0022d8:	8fa200b0 	lw	v0,176(sp)
9d0022dc:	32e20041 	andi	v0,s7,0x41
9d0022e0:	10400135 	beqz	v0,9d0027b8 <_do_print_cdfFnopuxX+0x9b8>
9d0022e4:	8fa400b0 	lw	a0,176(sp)
9d0022e8:	8fa300b0 	lw	v1,176(sp)
9d0022ec:	8c750000 	lw	s5,0(v1)
9d0022f0:	0000a021 	move	s4,zero
9d0022f4:	24630004 	addiu	v1,v1,4
9d0022f8:	afa300b0 	sw	v1,176(sp)
9d0022fc:	afa00074 	sw	zero,116(sp)
9d002300:	1680ff9c 	bnez	s4,9d002174 <_do_print_cdfFnopuxX+0x374>
9d002304:	02b41025 	or	v0,s5,s4
9d002308:	12a0014b 	beqz	s5,9d002838 <_do_print_cdfFnopuxX+0xa38>
9d00230c:	02a06821 	move	t5,s5
9d002310:	27a40057 	addiu	a0,sp,87
9d002314:	afa40070 	sw	a0,112(sp)
9d002318:	32e30020 	andi	v1,s7,0x20
9d00231c:	24050037 	li	a1,55
9d002320:	00809821 	move	s3,a0
9d002324:	24020057 	li	v0,87
9d002328:	0043280a 	movz	a1,v0,v1
9d00232c:	01b0001b 	divu	zero,t5,s0
9d002330:	020001f4 	teq	s0,zero,0x7
9d002334:	00001810 	mfhi	v1
9d002338:	2673ffff 	addiu	s3,s3,-1
9d00233c:	27deffff 	addiu	s8,s8,-1
9d002340:	01b0001b 	divu	zero,t5,s0
9d002344:	020001f4 	teq	s0,zero,0x7
9d002348:	00006812 	mflo	t5
9d00234c:	2864000a 	slti	a0,v1,10
9d002350:	24620030 	addiu	v0,v1,48
9d002354:	00651821 	addu	v1,v1,a1
9d002358:	0064100a 	movz	v0,v1,a0
9d00235c:	15a0fff3 	bnez	t5,9d00232c <_do_print_cdfFnopuxX+0x52c>
9d002360:	a2620001 	sb	v0,1(s3)
9d002364:	0b40087e 	j	9d0021f8 <_do_print_cdfFnopuxX+0x3f8>
9d002368:	27c5ffff 	addiu	a1,s8,-1
9d00236c:	36f70020 	ori	s7,s7,0x20
9d002370:	36f70810 	ori	s7,s7,0x810
9d002374:	0b40083d 	j	9d0020f4 <_do_print_cdfFnopuxX+0x2f4>
9d002378:	24100010 	li	s0,16
9d00237c:	36f70020 	ori	s7,s7,0x20
9d002380:	32e20080 	andi	v0,s7,0x80
9d002384:	144000ac 	bnez	v0,9d002638 <_do_print_cdfFnopuxX+0x838>
9d002388:	36f00400 	ori	s0,s7,0x400
9d00238c:	8fa400b0 	lw	a0,176(sp)
9d002390:	8c820000 	lw	v0,0(a0)
9d002394:	24840004 	addiu	a0,a0,4
9d002398:	afa400b0 	sw	a0,176(sp)
9d00239c:	afa20058 	sw	v0,88(sp)
9d0023a0:	8fa50058 	lw	a1,88(sp)
9d0023a4:	afbe0010 	sw	s8,16(sp)
9d0023a8:	afb00014 	sw	s0,20(sp)
9d0023ac:	8fa400a8 	lw	a0,168(sp)
9d0023b0:	0f400a2d 	jal	9d0028b4 <_fconvert>
9d0023b4:	02c03821 	move	a3,s6
9d0023b8:	0b4008a5 	j	9d002294 <_do_print_cdfFnopuxX+0x494>
9d0023bc:	8fa30068 	lw	v1,104(sp)
9d0023c0:	36f70010 	ori	s7,s7,0x10
9d0023c4:	32e8f7ff 	andi	t0,s7,0xf7ff
9d0023c8:	351700c0 	ori	s7,t0,0xc0
9d0023cc:	0b40083d 	j	9d0020f4 <_do_print_cdfFnopuxX+0x2f4>
9d0023d0:	2410000a 	li	s0,10
9d0023d4:	82020001 	lb	v0,1(s0)
9d0023d8:	504600eb 	beql	v0,a2,9d002788 <_do_print_cdfFnopuxX+0x988>
9d0023dc:	82060002 	lb	a2,2(s0)
9d0023e0:	36f70040 	ori	s7,s7,0x40
9d0023e4:	00403021 	move	a2,v0
9d0023e8:	26100001 	addiu	s0,s0,1
9d0023ec:	32e30002 	andi	v1,s7,0x2
9d0023f0:	32e2fffe 	andi	v0,s7,0xfffe
9d0023f4:	0043b80b 	movn	s7,v0,v1
9d0023f8:	24c2ffbc 	addiu	v0,a2,-68
9d0023fc:	32e50008 	andi	a1,s7,0x8
9d002400:	32e4fffb 	andi	a0,s7,0xfffb
9d002404:	2c430035 	sltiu	v1,v0,53
9d002408:	26120001 	addiu	s2,s0,1
9d00240c:	1460fefb 	bnez	v1,9d001ffc <_do_print_cdfFnopuxX+0x1fc>
9d002410:	0085b80b 	movn	s7,a0,a1
9d002414:	0b4008a4 	j	9d002290 <_do_print_cdfFnopuxX+0x490>
9d002418:	00001021 	move	v0,zero
9d00241c:	82060001 	lb	a2,1(s0)
9d002420:	2402002a 	li	v0,42
9d002424:	10c200ce 	beq	a2,v0,9d002760 <_do_print_cdfFnopuxX+0x960>
9d002428:	24c2ffd0 	addiu	v0,a2,-48
9d00242c:	2c42000a 	sltiu	v0,v0,10
9d002430:	26100001 	addiu	s0,s0,1
9d002434:	1040fede 	beqz	v0,9d001fb0 <_do_print_cdfFnopuxX+0x1b0>
9d002438:	0000f021 	move	s8,zero
9d00243c:	001e1040 	sll	v0,s8,0x1
9d002440:	001e58c0 	sll	t3,s8,0x3
9d002444:	004b5821 	addu	t3,v0,t3
9d002448:	26100001 	addiu	s0,s0,1
9d00244c:	01665821 	addu	t3,t3,a2
9d002450:	82060000 	lb	a2,0(s0)
9d002454:	24c2ffd0 	addiu	v0,a2,-48
9d002458:	2c42000a 	sltiu	v0,v0,10
9d00245c:	1440fff7 	bnez	v0,9d00243c <_do_print_cdfFnopuxX+0x63c>
9d002460:	257effd0 	addiu	s8,t3,-48
9d002464:	0b4007ed 	j	9d001fb4 <_do_print_cdfFnopuxX+0x1b4>
9d002468:	24020068 	li	v0,104
9d00246c:	8fa200b0 	lw	v0,176(sp)
9d002470:	8c560000 	lw	s6,0(v0)
9d002474:	24550004 	addiu	s5,v0,4
9d002478:	26100001 	addiu	s0,s0,1
9d00247c:	06c10003 	bgez	s6,9d00248c <_do_print_cdfFnopuxX+0x68c>
9d002480:	80660001 	lb	a2,1(v1)
9d002484:	36f70008 	ori	s7,s7,0x8
9d002488:	0016b023 	negu	s6,s6
9d00248c:	0b4007e9 	j	9d001fa4 <_do_print_cdfFnopuxX+0x1a4>
9d002490:	afb500b0 	sw	s5,176(sp)
9d002494:	82020001 	lb	v0,1(s0)
9d002498:	504600d2 	beql	v0,a2,9d0027e4 <_do_print_cdfFnopuxX+0x9e4>
9d00249c:	82060002 	lb	a2,2(s0)
9d0024a0:	36f70010 	ori	s7,s7,0x10
9d0024a4:	00403021 	move	a2,v0
9d0024a8:	0b4008fb 	j	9d0023ec <_do_print_cdfFnopuxX+0x5ec>
9d0024ac:	26100001 	addiu	s0,s0,1
9d0024b0:	24040025 	li	a0,37
9d0024b4:	0f401288 	jal	9d004a20 <.LFE0>
9d0024b8:	8fa500a8 	lw	a1,168(sp)
9d0024bc:	26520002 	addiu	s2,s2,2
9d0024c0:	8fa40068 	lw	a0,104(sp)
9d0024c4:	24840001 	addiu	a0,a0,1
9d0024c8:	0b400796 	j	9d001e58 <_do_print_cdfFnopuxX+0x58>
9d0024cc:	afa40068 	sw	a0,104(sp)
9d0024d0:	82060001 	lb	a2,1(s0)
9d0024d4:	36f78000 	ori	s7,s7,0x8000
9d0024d8:	0b4007f5 	j	9d001fd4 <_do_print_cdfFnopuxX+0x1d4>
9d0024dc:	26100001 	addiu	s0,s0,1
9d0024e0:	2402ffff 	li	v0,-1
9d0024e4:	8fbf00a4 	lw	ra,164(sp)
9d0024e8:	8fbe00a0 	lw	s8,160(sp)
9d0024ec:	8fb7009c 	lw	s7,156(sp)
9d0024f0:	8fb60098 	lw	s6,152(sp)
9d0024f4:	8fb50094 	lw	s5,148(sp)
9d0024f8:	8fb40090 	lw	s4,144(sp)
9d0024fc:	8fb3008c 	lw	s3,140(sp)
9d002500:	8fb20088 	lw	s2,136(sp)
9d002504:	8fb10084 	lw	s1,132(sp)
9d002508:	8fb00080 	lw	s0,128(sp)
9d00250c:	03e00008 	jr	ra
9d002510:	27bd00a8 	addiu	sp,sp,168
9d002514:	8c550000 	lw	s5,0(v0)
9d002518:	0000a021 	move	s4,zero
9d00251c:	24420004 	addiu	v0,v0,4
9d002520:	afa200b0 	sw	v0,176(sp)
9d002524:	0b4008c0 	j	9d002300 <_do_print_cdfFnopuxX+0x500>
9d002528:	afa00074 	sw	zero,116(sp)
9d00252c:	8c550000 	lw	s5,0(v0)
9d002530:	24420004 	addiu	v0,v0,4
9d002534:	afa200b0 	sw	v0,176(sp)
9d002538:	0b400852 	j	9d002148 <_do_print_cdfFnopuxX+0x348>
9d00253c:	0015a7c3 	sra	s4,s5,0x1f
9d002540:	0b40083d 	j	9d0020f4 <_do_print_cdfFnopuxX+0x2f4>
9d002544:	24100008 	li	s0,8
9d002548:	7c171620 	seh	v0,s7
9d00254c:	044000c2 	bltz	v0,9d002858 <_do_print_cdfFnopuxX+0xa58>
9d002550:	8fa400b0 	lw	a0,176(sp)
9d002554:	32e20010 	andi	v0,s7,0x10
9d002558:	144000ab 	bnez	v0,9d002808 <_do_print_cdfFnopuxX+0xa08>
9d00255c:	8fa200b0 	lw	v0,176(sp)
9d002560:	32e20040 	andi	v0,s7,0x40
9d002564:	104000c7 	beqz	v0,9d002884 <_do_print_cdfFnopuxX+0xa84>
9d002568:	32e80001 	andi	t0,s7,0x1
9d00256c:	8fa200b0 	lw	v0,176(sp)
9d002570:	8c430000 	lw	v1,0(v0)
9d002574:	00001021 	move	v0,zero
9d002578:	8fa400b0 	lw	a0,176(sp)
9d00257c:	24840004 	addiu	a0,a0,4
9d002580:	afa400b0 	sw	a0,176(sp)
9d002584:	8fa40068 	lw	a0,104(sp)
9d002588:	0b4008a4 	j	9d002290 <_do_print_cdfFnopuxX+0x490>
9d00258c:	a4640000 	sh	a0,0(v1)
9d002590:	8fa400b0 	lw	a0,176(sp)
9d002594:	8c900000 	lw	s0,0(a0)
9d002598:	3c039d00 	lui	v1,0x9d00
9d00259c:	24624f84 	addiu	v0,v1,20356
9d0025a0:	0050800a 	movz	s0,v0,s0
9d0025a4:	2402ffff 	li	v0,-1
9d0025a8:	13c200a7 	beq	s8,v0,9d002848 <_do_print_cdfFnopuxX+0xa48>
9d0025ac:	24950004 	addiu	s5,a0,4
9d0025b0:	1bc00004 	blez	s8,9d0025c4 <_do_print_cdfFnopuxX+0x7c4>
9d0025b4:	021e5821 	addu	t3,s0,s8
9d0025b8:	82030000 	lb	v1,0(s0)
9d0025bc:	14600005 	bnez	v1,9d0025d4 <_do_print_cdfFnopuxX+0x7d4>
9d0025c0:	02001021 	move	v0,s0
9d0025c4:	0b400979 	j	9d0025e4 <_do_print_cdfFnopuxX+0x7e4>
9d0025c8:	00001021 	move	v0,zero
9d0025cc:	50600005 	beqzl	v1,9d0025e4 <_do_print_cdfFnopuxX+0x7e4>
9d0025d0:	00501023 	subu	v0,v0,s0
9d0025d4:	24420001 	addiu	v0,v0,1
9d0025d8:	544bfffc 	bnel	v0,t3,9d0025cc <_do_print_cdfFnopuxX+0x7cc>
9d0025dc:	80430000 	lb	v1,0(v0)
9d0025e0:	00501023 	subu	v0,v0,s0
9d0025e4:	afb70010 	sw	s7,16(sp)
9d0025e8:	8fa400a8 	lw	a0,168(sp)
9d0025ec:	02002821 	move	a1,s0
9d0025f0:	00403021 	move	a2,v0
9d0025f4:	0f4010e0 	jal	9d004380 <_outcnvrt>
9d0025f8:	02c03821 	move	a3,s6
9d0025fc:	0b4008a4 	j	9d002290 <_do_print_cdfFnopuxX+0x490>
9d002600:	afb500b0 	sw	s5,176(sp)
9d002604:	8fa300b0 	lw	v1,176(sp)
9d002608:	8c620000 	lw	v0,0(v1)
9d00260c:	24750004 	addiu	s5,v1,4
9d002610:	afb70010 	sw	s7,16(sp)
9d002614:	8fa400a8 	lw	a0,168(sp)
9d002618:	27a50018 	addiu	a1,sp,24
9d00261c:	24060001 	li	a2,1
9d002620:	02c03821 	move	a3,s6
9d002624:	a3a20018 	sb	v0,24(sp)
9d002628:	0f4010e0 	jal	9d004380 <_outcnvrt>
9d00262c:	afb500b0 	sw	s5,176(sp)
9d002630:	0b4008a5 	j	9d002294 <_do_print_cdfFnopuxX+0x494>
9d002634:	8fa30068 	lw	v1,104(sp)
9d002638:	8fa300b0 	lw	v1,176(sp)
9d00263c:	24750007 	addiu	s5,v1,7
9d002640:	7c151004 	ins	s5,zero,0x0,0x3
9d002644:	8ea40000 	lw	a0,0(s5)
9d002648:	8ea50004 	lw	a1,4(s5)
9d00264c:	26b50008 	addiu	s5,s5,8
9d002650:	afb500b0 	sw	s5,176(sp)
9d002654:	0f40112f 	jal	9d0044bc <__truncdfsf2>
9d002658:	afa60078 	sw	a2,120(sp)
9d00265c:	afa20058 	sw	v0,88(sp)
9d002660:	0b4008e8 	j	9d0023a0 <_do_print_cdfFnopuxX+0x5a0>
9d002664:	8fa60078 	lw	a2,120(sp)
9d002668:	36f70010 	ori	s7,s7,0x10
9d00266c:	0b40083d 	j	9d0020f4 <_do_print_cdfFnopuxX+0x2f4>
9d002670:	24100008 	li	s0,8
9d002674:	8fa20070 	lw	v0,112(sp)
9d002678:	02621823 	subu	v1,s3,v0
9d00267c:	3084ffff 	andi	a0,a0,0xffff
9d002680:	10800006 	beqz	a0,9d00269c <_do_print_cdfFnopuxX+0x89c>
9d002684:	02c31821 	addu	v1,s6,v1
9d002688:	24020008 	li	v0,8
9d00268c:	12020059 	beq	s0,v0,9d0027f4 <_do_print_cdfFnopuxX+0x9f4>
9d002690:	2462fffe 	addiu	v0,v1,-2
9d002694:	3a050010 	xori	a1,s0,0x10
9d002698:	0045180a 	movz	v1,v0,a1
9d00269c:	8fa2006c 	lw	v0,108(sp)
9d0026a0:	10400006 	beqz	v0,9d0026bc <_do_print_cdfFnopuxX+0x8bc>
9d0026a4:	8fa20074 	lw	v0,116(sp)
9d0026a8:	54400004 	bnezl	v0,9d0026bc <_do_print_cdfFnopuxX+0x8bc>
9d0026ac:	2463ffff 	addiu	v1,v1,-1
9d0026b0:	32e20003 	andi	v0,s7,0x3
9d0026b4:	54400001 	bnezl	v0,9d0026bc <_do_print_cdfFnopuxX+0x8bc>
9d0026b8:	2463ffff 	addiu	v1,v1,-1
9d0026bc:	1860fedd 	blez	v1,9d002234 <_do_print_cdfFnopuxX+0x434>
9d0026c0:	02601021 	move	v0,s3
9d0026c4:	02635023 	subu	t2,s3,v1
9d0026c8:	24030030 	li	v1,48
9d0026cc:	a0430000 	sb	v1,0(v0)
9d0026d0:	2442ffff 	addiu	v0,v0,-1
9d0026d4:	5542fffe 	bnel	t2,v0,9d0026d0 <_do_print_cdfFnopuxX+0x8d0>
9d0026d8:	a0430000 	sb	v1,0(v0)
9d0026dc:	0b40088d 	j	9d002234 <_do_print_cdfFnopuxX+0x434>
9d0026e0:	01409821 	move	s3,t2
9d0026e4:	2402002d 	li	v0,45
9d0026e8:	a2620000 	sb	v0,0(s3)
9d0026ec:	0b40089d 	j	9d002274 <_do_print_cdfFnopuxX+0x474>
9d0026f0:	2673ffff 	addiu	s3,s3,-1
9d0026f4:	36f70080 	ori	s7,s7,0x80
9d0026f8:	0b4008fb 	j	9d0023ec <_do_print_cdfFnopuxX+0x5ec>
9d0026fc:	26100001 	addiu	s0,s0,1
9d002700:	82630001 	lb	v1,1(s3)
9d002704:	24020030 	li	v0,48
9d002708:	1062fed2 	beq	v1,v0,9d002254 <_do_print_cdfFnopuxX+0x454>
9d00270c:	8fa3006c 	lw	v1,108(sp)
9d002710:	a2620000 	sb	v0,0(s3)
9d002714:	0b400894 	j	9d002250 <_do_print_cdfFnopuxX+0x450>
9d002718:	2673ffff 	addiu	s3,s3,-1
9d00271c:	8fa300b0 	lw	v1,176(sp)
9d002720:	24620007 	addiu	v0,v1,7
9d002724:	7c021004 	ins	v0,zero,0x0,0x3
9d002728:	24440008 	addiu	a0,v0,8
9d00272c:	afa400b0 	sw	a0,176(sp)
9d002730:	8c550000 	lw	s5,0(v0)
9d002734:	0b400852 	j	9d002148 <_do_print_cdfFnopuxX+0x348>
9d002738:	8c540004 	lw	s4,4(v0)
9d00273c:	8fa300b0 	lw	v1,176(sp)
9d002740:	24620007 	addiu	v0,v1,7
9d002744:	7c021004 	ins	v0,zero,0x0,0x3
9d002748:	24440008 	addiu	a0,v0,8
9d00274c:	afa400b0 	sw	a0,176(sp)
9d002750:	8c550000 	lw	s5,0(v0)
9d002754:	8c540004 	lw	s4,4(v0)
9d002758:	0b4008c0 	j	9d002300 <_do_print_cdfFnopuxX+0x500>
9d00275c:	afa00074 	sw	zero,116(sp)
9d002760:	8fa300b0 	lw	v1,176(sp)
9d002764:	8c7e0000 	lw	s8,0(v1)
9d002768:	24750004 	addiu	s5,v1,4
9d00276c:	26020002 	addiu	v0,s0,2
9d002770:	82060002 	lb	a2,2(s0)
9d002774:	afb500b0 	sw	s5,176(sp)
9d002778:	07c1fe0d 	bgez	s8,9d001fb0 <_do_print_cdfFnopuxX+0x1b0>
9d00277c:	00408021 	move	s0,v0
9d002780:	0b4007ec 	j	9d001fb0 <_do_print_cdfFnopuxX+0x1b0>
9d002784:	241effff 	li	s8,-1
9d002788:	36f70001 	ori	s7,s7,0x1
9d00278c:	26100001 	addiu	s0,s0,1
9d002790:	0b4008fb 	j	9d0023ec <_do_print_cdfFnopuxX+0x5ec>
9d002794:	26100001 	addiu	s0,s0,1
9d002798:	24020058 	li	v0,88
9d00279c:	24030078 	li	v1,120
9d0027a0:	0064100a 	movz	v0,v1,a0
9d0027a4:	a2620000 	sb	v0,0(s3)
9d0027a8:	24020030 	li	v0,48
9d0027ac:	a262ffff 	sb	v0,-1(s3)
9d0027b0:	0b400894 	j	9d002250 <_do_print_cdfFnopuxX+0x450>
9d0027b4:	2673fffe 	addiu	s3,s3,-2
9d0027b8:	8c950000 	lw	s5,0(a0)
9d0027bc:	0000a021 	move	s4,zero
9d0027c0:	24840004 	addiu	a0,a0,4
9d0027c4:	afa400b0 	sw	a0,176(sp)
9d0027c8:	0b4008c0 	j	9d002300 <_do_print_cdfFnopuxX+0x500>
9d0027cc:	afa00074 	sw	zero,116(sp)
9d0027d0:	8c950000 	lw	s5,0(a0)
9d0027d4:	24840004 	addiu	a0,a0,4
9d0027d8:	afa400b0 	sw	a0,176(sp)
9d0027dc:	0b400852 	j	9d002148 <_do_print_cdfFnopuxX+0x348>
9d0027e0:	0015a7c3 	sra	s4,s5,0x1f
9d0027e4:	36f78000 	ori	s7,s7,0x8000
9d0027e8:	26100001 	addiu	s0,s0,1
9d0027ec:	0b4008fb 	j	9d0023ec <_do_print_cdfFnopuxX+0x5ec>
9d0027f0:	26100001 	addiu	s0,s0,1
9d0027f4:	82620001 	lb	v0,1(s3)
9d0027f8:	38420030 	xori	v0,v0,0x30
9d0027fc:	0002102b 	sltu	v0,zero,v0
9d002800:	0b4009a7 	j	9d00269c <_do_print_cdfFnopuxX+0x89c>
9d002804:	00621823 	subu	v1,v1,v0
9d002808:	8c430000 	lw	v1,0(v0)
9d00280c:	00001021 	move	v0,zero
9d002810:	8fa400b0 	lw	a0,176(sp)
9d002814:	24840004 	addiu	a0,a0,4
9d002818:	afa400b0 	sw	a0,176(sp)
9d00281c:	8fa40068 	lw	a0,104(sp)
9d002820:	0b4008a4 	j	9d002290 <_do_print_cdfFnopuxX+0x490>
9d002824:	ac640000 	sw	a0,0(v1)
9d002828:	27a30057 	addiu	v1,sp,87
9d00282c:	afa30070 	sw	v1,112(sp)
9d002830:	0b40087e 	j	9d0021f8 <_do_print_cdfFnopuxX+0x3f8>
9d002834:	00609821 	move	s3,v1
9d002838:	27a20057 	addiu	v0,sp,87
9d00283c:	afa20070 	sw	v0,112(sp)
9d002840:	0b40087e 	j	9d0021f8 <_do_print_cdfFnopuxX+0x3f8>
9d002844:	00409821 	move	s3,v0
9d002848:	0f401301 	jal	9d004c04 <strlen>
9d00284c:	02002021 	move	a0,s0
9d002850:	0b40097a 	j	9d0025e8 <_do_print_cdfFnopuxX+0x7e8>
9d002854:	afb70010 	sw	s7,16(sp)
9d002858:	8c820000 	lw	v0,0(a0)
9d00285c:	8fa40068 	lw	a0,104(sp)
9d002860:	00041fc3 	sra	v1,a0,0x1f
9d002864:	8fa400b0 	lw	a0,176(sp)
9d002868:	24840004 	addiu	a0,a0,4
9d00286c:	afa400b0 	sw	a0,176(sp)
9d002870:	8fa40068 	lw	a0,104(sp)
9d002874:	ac440000 	sw	a0,0(v0)
9d002878:	ac430004 	sw	v1,4(v0)
9d00287c:	0b4008a4 	j	9d002290 <_do_print_cdfFnopuxX+0x490>
9d002880:	00001021 	move	v0,zero
9d002884:	8fa200b0 	lw	v0,176(sp)
9d002888:	8c430000 	lw	v1,0(v0)
9d00288c:	00001021 	move	v0,zero
9d002890:	8fa400b0 	lw	a0,176(sp)
9d002894:	24840004 	addiu	a0,a0,4
9d002898:	afa400b0 	sw	a0,176(sp)
9d00289c:	11000003 	beqz	t0,9d0028ac <_do_print_cdfFnopuxX+0xaac>
9d0028a0:	8fa40068 	lw	a0,104(sp)
9d0028a4:	0b4008a4 	j	9d002290 <_do_print_cdfFnopuxX+0x490>
9d0028a8:	a0640000 	sb	a0,0(v1)
9d0028ac:	0b4008a4 	j	9d002290 <_do_print_cdfFnopuxX+0x490>
9d0028b0:	ac640000 	sw	a0,0(v1)

Disassembly of section .text._fconvert:

9d0028b4 <_fconvert>:
9d0028b4:	27bdfda0 	addiu	sp,sp,-608
9d0028b8:	afbf025c 	sw	ra,604(sp)
9d0028bc:	afbe0258 	sw	s8,600(sp)
9d0028c0:	afb70254 	sw	s7,596(sp)
9d0028c4:	afb60250 	sw	s6,592(sp)
9d0028c8:	afb5024c 	sw	s5,588(sp)
9d0028cc:	afb40248 	sw	s4,584(sp)
9d0028d0:	afb30244 	sw	s3,580(sp)
9d0028d4:	afb20240 	sw	s2,576(sp)
9d0028d8:	afb1023c 	sw	s1,572(sp)
9d0028dc:	afb00238 	sw	s0,568(sp)
9d0028e0:	00a08021 	move	s0,a1
9d0028e4:	3c027f80 	lui	v0,0x7f80
9d0028e8:	00451824 	and	v1,v0,a1
9d0028ec:	afa40260 	sw	a0,608(sp)
9d0028f0:	afa60268 	sw	a2,616(sp)
9d0028f4:	00e0b821 	move	s7,a3
9d0028f8:	8fb50270 	lw	s5,624(sp)
9d0028fc:	97a40274 	lhu	a0,628(sp)
9d002900:	106200d3 	beq	v1,v0,9d002c50 <_fconvert+0x39c>
9d002904:	afa40228 	sw	a0,552(sp)
9d002908:	2402ffff 	li	v0,-1
9d00290c:	12a2011e 	beq	s5,v0,9d002d88 <_fconvert+0x4d4>
9d002910:	2aa20028 	slti	v0,s5,40
9d002914:	14400009 	bnez	v0,9d00293c <_fconvert+0x88>
9d002918:	afa0022c 	sw	zero,556(sp)
9d00291c:	8fa30268 	lw	v1,616(sp)
9d002920:	7c032944 	ins	v1,zero,0x5,0x1
9d002924:	24020047 	li	v0,71
9d002928:	10620134 	beq	v1,v0,9d002dfc <_fconvert+0x548>
9d00292c:	8fa30228 	lw	v1,552(sp)
9d002930:	26b5ffd9 	addiu	s5,s5,-39
9d002934:	afb5022c 	sw	s5,556(sp)
9d002938:	24150027 	li	s5,39
9d00293c:	a3a00019 	sb	zero,25(sp)
9d002940:	06000069 	bltz	s0,9d002ae8 <_fconvert+0x234>
9d002944:	afa00230 	sw	zero,560(sp)
9d002948:	02002021 	move	a0,s0
9d00294c:	0f40121e 	jal	9d004878 <fpmodf>
9d002950:	27a50224 	addiu	a1,sp,548
9d002954:	0040b021 	move	s6,v0
9d002958:	8fbe0224 	lw	s8,548(sp)
9d00295c:	00002821 	move	a1,zero
9d002960:	0f4012da 	jal	9d004b68 <__eqsf2>
9d002964:	03c02021 	move	a0,s8
9d002968:	1040012e 	beqz	v0,9d002e24 <_fconvert+0x570>
9d00296c:	3c029d00 	lui	v0,0x9d00
9d002970:	3c109d00 	lui	s0,0x9d00
9d002974:	8e124fcc 	lw	s2,20428(s0)
9d002978:	8c544fd0 	lw	s4,20432(v0)
9d00297c:	00008821 	move	s1,zero
9d002980:	27b00218 	addiu	s0,sp,536
9d002984:	02409821 	move	s3,s2
9d002988:	03c02021 	move	a0,s8
9d00298c:	0f400f24 	jal	9d003c90 <__divsf3>
9d002990:	02402821 	move	a1,s2
9d002994:	00402021 	move	a0,v0
9d002998:	0f40121e 	jal	9d004878 <fpmodf>
9d00299c:	27a50224 	addiu	a1,sp,548
9d0029a0:	00402021 	move	a0,v0
9d0029a4:	02802821 	move	a1,s4
9d0029a8:	0f400e88 	jal	9d003a20 <__addsf3>
9d0029ac:	afa20220 	sw	v0,544(sp)
9d0029b0:	00402021 	move	a0,v0
9d0029b4:	0f401021 	jal	9d004084 <.LFE9>
9d0029b8:	02602821 	move	a1,s3
9d0029bc:	0f401387 	jal	9d004e1c <__fixsfsi>
9d0029c0:	00402021 	move	a0,v0
9d0029c4:	8fbe0224 	lw	s8,548(sp)
9d0029c8:	2610ffff 	addiu	s0,s0,-1
9d0029cc:	24420030 	addiu	v0,v0,48
9d0029d0:	03c02021 	move	a0,s8
9d0029d4:	00002821 	move	a1,zero
9d0029d8:	a2020001 	sb	v0,1(s0)
9d0029dc:	0f4012da 	jal	9d004b68 <__eqsf2>
9d0029e0:	26310001 	addiu	s1,s1,1
9d0029e4:	1440ffe9 	bnez	v0,9d00298c <_fconvert+0xd8>
9d0029e8:	03c02021 	move	a0,s8
9d0029ec:	24020046 	li	v0,70
9d0029f0:	8fa30268 	lw	v1,616(sp)
9d0029f4:	10620041 	beq	v1,v0,9d002afc <_fconvert+0x248>
9d0029f8:	24020066 	li	v0,102
9d0029fc:	1062003f 	beq	v1,v0,9d002afc <_fconvert+0x248>
9d002a00:	00009821 	move	s3,zero
9d002a04:	83a40019 	lb	a0,25(sp)
9d002a08:	27a20019 	addiu	v0,sp,25
9d002a0c:	27a3001a 	addiu	v1,sp,26
9d002a10:	0064100a 	movz	v0,v1,a0
9d002a14:	8fa30230 	lw	v1,560(sp)
9d002a18:	10600027 	beqz	v1,9d002ab8 <_fconvert+0x204>
9d002a1c:	8fa40228 	lw	a0,552(sp)
9d002a20:	2452ffff 	addiu	s2,v0,-1
9d002a24:	a043ffff 	sb	v1,-1(v0)
9d002a28:	26730001 	addiu	s3,s3,1
9d002a2c:	8fa30228 	lw	v1,552(sp)
9d002a30:	30710008 	andi	s1,v1,0x8
9d002a34:	3231ffff 	andi	s1,s1,0xffff
9d002a38:	8fa3022c 	lw	v1,556(sp)
9d002a3c:	1620006f 	bnez	s1,9d002bfc <_fconvert+0x348>
9d002a40:	02638021 	addu	s0,s3,v1
9d002a44:	0217102a 	slt	v0,s0,s7
9d002a48:	1040006d 	beqz	v0,9d002c00 <_fconvert+0x34c>
9d002a4c:	02402021 	move	a0,s2
9d002a50:	8fa30228 	lw	v1,552(sp)
9d002a54:	30620004 	andi	v0,v1,0x4
9d002a58:	8fa40260 	lw	a0,608(sp)
9d002a5c:	104000ec 	beqz	v0,9d002e10 <_fconvert+0x55c>
9d002a60:	02f02823 	subu	a1,s7,s0
9d002a64:	3c069d00 	lui	a2,0x9d00
9d002a68:	0f4012b3 	jal	9d004acc <repl>
9d002a6c:	24c64f8c 	addiu	a2,a2,20364
9d002a70:	2403ffff 	li	v1,-1
9d002a74:	14430062 	bne	v0,v1,9d002c00 <_fconvert+0x34c>
9d002a78:	02402021 	move	a0,s2
9d002a7c:	0217102a 	slt	v0,s0,s7
9d002a80:	0202b80a 	movz	s7,s0,v0
9d002a84:	02e01021 	move	v0,s7
9d002a88:	8fbf025c 	lw	ra,604(sp)
9d002a8c:	8fbe0258 	lw	s8,600(sp)
9d002a90:	8fb70254 	lw	s7,596(sp)
9d002a94:	8fb60250 	lw	s6,592(sp)
9d002a98:	8fb5024c 	lw	s5,588(sp)
9d002a9c:	8fb40248 	lw	s4,584(sp)
9d002aa0:	8fb30244 	lw	s3,580(sp)
9d002aa4:	8fb20240 	lw	s2,576(sp)
9d002aa8:	8fb1023c 	lw	s1,572(sp)
9d002aac:	8fb00238 	lw	s0,568(sp)
9d002ab0:	03e00008 	jr	ra
9d002ab4:	27bd0260 	addiu	sp,sp,608
9d002ab8:	30830002 	andi	v1,a0,0x2
9d002abc:	546000b9 	bnezl	v1,9d002da4 <_fconvert+0x4f0>
9d002ac0:	2452ffff 	addiu	s2,v0,-1
9d002ac4:	8fa40228 	lw	a0,552(sp)
9d002ac8:	30830001 	andi	v1,a0,0x1
9d002acc:	1060ffd7 	beqz	v1,9d002a2c <_fconvert+0x178>
9d002ad0:	00409021 	move	s2,v0
9d002ad4:	2452ffff 	addiu	s2,v0,-1
9d002ad8:	24030020 	li	v1,32
9d002adc:	a043ffff 	sb	v1,-1(v0)
9d002ae0:	0b400a8b 	j	9d002a2c <_fconvert+0x178>
9d002ae4:	26730001 	addiu	s3,s3,1
9d002ae8:	3c028000 	lui	v0,0x8000
9d002aec:	00508026 	xor	s0,v0,s0
9d002af0:	2403002d 	li	v1,45
9d002af4:	0b400a52 	j	9d002948 <_fconvert+0x94>
9d002af8:	afa30230 	sw	v1,560(sp)
9d002afc:	1220006f 	beqz	s1,9d002cbc <_fconvert+0x408>
9d002b00:	24020030 	li	v0,48
9d002b04:	26020001 	addiu	v0,s0,1
9d002b08:	27a50219 	addiu	a1,sp,537
9d002b0c:	0045182b 	sltu	v1,v0,a1
9d002b10:	106000d9 	beqz	v1,9d002e78 <_fconvert+0x5c4>
9d002b14:	27b2001a 	addiu	s2,sp,26
9d002b18:	02401821 	move	v1,s2
9d002b1c:	80440000 	lb	a0,0(v0)
9d002b20:	24630001 	addiu	v1,v1,1
9d002b24:	24420001 	addiu	v0,v0,1
9d002b28:	1445fffc 	bne	v0,a1,9d002b1c <_fconvert+0x268>
9d002b2c:	a064ffff 	sb	a0,-1(v1)
9d002b30:	03b08023 	subu	s0,sp,s0
9d002b34:	26100218 	addiu	s0,s0,536
9d002b38:	02508021 	addu	s0,s2,s0
9d002b3c:	12a00064 	beqz	s5,9d002cd0 <_fconvert+0x41c>
9d002b40:	8fa30228 	lw	v1,552(sp)
9d002b44:	02c02021 	move	a0,s6
9d002b48:	00002821 	move	a1,zero
9d002b4c:	26130001 	addiu	s3,s0,1
9d002b50:	2402002e 	li	v0,46
9d002b54:	0f4012da 	jal	9d004b68 <__eqsf2>
9d002b58:	a2020000 	sb	v0,0(s0)
9d002b5c:	10400082 	beqz	v0,9d002d68 <_fconvert+0x4b4>
9d002b60:	26a3ffff 	addiu	v1,s5,-1
9d002b64:	3c109d00 	lui	s0,0x9d00
9d002b68:	0b400ae0 	j	9d002b80 <_fconvert+0x2cc>
9d002b6c:	8e114fcc 	lw	s1,20428(s0)
9d002b70:	0f4012da 	jal	9d004b68 <__eqsf2>
9d002b74:	00000000 	nop
9d002b78:	1040007b 	beqz	v0,9d002d68 <_fconvert+0x4b4>
9d002b7c:	26a3ffff 	addiu	v1,s5,-1
9d002b80:	02c02021 	move	a0,s6
9d002b84:	0f401021 	jal	9d004084 <.LFE9>
9d002b88:	02202821 	move	a1,s1
9d002b8c:	00402021 	move	a0,v0
9d002b90:	0f40121e 	jal	9d004878 <fpmodf>
9d002b94:	27a50220 	addiu	a1,sp,544
9d002b98:	0040b021 	move	s6,v0
9d002b9c:	8fa40220 	lw	a0,544(sp)
9d002ba0:	26730001 	addiu	s3,s3,1
9d002ba4:	0f401387 	jal	9d004e1c <__fixsfsi>
9d002ba8:	26b5ffff 	addiu	s5,s5,-1
9d002bac:	02c02021 	move	a0,s6
9d002bb0:	00002821 	move	a1,zero
9d002bb4:	24420030 	addiu	v0,v0,48
9d002bb8:	16a0ffed 	bnez	s5,9d002b70 <_fconvert+0x2bc>
9d002bbc:	a262ffff 	sb	v0,-1(s3)
9d002bc0:	02c02021 	move	a0,s6
9d002bc4:	0f4012da 	jal	9d004b68 <__eqsf2>
9d002bc8:	00002821 	move	a1,zero
9d002bcc:	54400049 	bnezl	v0,9d002cf4 <_fconvert+0x440>
9d002bd0:	8e054fcc 	lw	a1,20428(s0)
9d002bd4:	02729823 	subu	s3,s3,s2
9d002bd8:	83a40019 	lb	a0,25(sp)
9d002bdc:	27a20019 	addiu	v0,sp,25
9d002be0:	27a3001a 	addiu	v1,sp,26
9d002be4:	0064100a 	movz	v0,v1,a0
9d002be8:	8fa30230 	lw	v1,560(sp)
9d002bec:	1060ffb2 	beqz	v1,9d002ab8 <_fconvert+0x204>
9d002bf0:	8fa40228 	lw	a0,552(sp)
9d002bf4:	0b400a89 	j	9d002a24 <_fconvert+0x170>
9d002bf8:	2452ffff 	addiu	s2,v0,-1
9d002bfc:	02402021 	move	a0,s2
9d002c00:	02602821 	move	a1,s3
9d002c04:	0f4013c2 	jal	9d004f08 <__sputn>
9d002c08:	8fa60260 	lw	a2,608(sp)
9d002c0c:	2412ffff 	li	s2,-1
9d002c10:	1052ff9a 	beq	v0,s2,9d002a7c <_fconvert+0x1c8>
9d002c14:	8fa3022c 	lw	v1,556(sp)
9d002c18:	14600066 	bnez	v1,9d002db4 <_fconvert+0x500>
9d002c1c:	8fa40260 	lw	a0,608(sp)
9d002c20:	1220ff97 	beqz	s1,9d002a80 <_fconvert+0x1cc>
9d002c24:	0217102a 	slt	v0,s0,s7
9d002c28:	0217102a 	slt	v0,s0,s7
9d002c2c:	5040ff94 	beqzl	v0,9d002a80 <_fconvert+0x1cc>
9d002c30:	0217102a 	slt	v0,s0,s7
9d002c34:	8fa40260 	lw	a0,608(sp)
9d002c38:	02f02823 	subu	a1,s7,s0
9d002c3c:	3c069d00 	lui	a2,0x9d00
9d002c40:	0f4012b3 	jal	9d004acc <repl>
9d002c44:	24c64fac 	addiu	a2,a2,20396
9d002c48:	0b400aa0 	j	9d002a80 <_fconvert+0x1cc>
9d002c4c:	0217102a 	slt	v0,s0,s7
9d002c50:	0f4012da 	jal	9d004b68 <__eqsf2>
9d002c54:	00a02021 	move	a0,a1
9d002c58:	1440005e 	bnez	v0,9d002dd4 <_fconvert+0x520>
9d002c5c:	02002021 	move	a0,s0
9d002c60:	0f4012da 	jal	9d004b68 <__eqsf2>
9d002c64:	00002821 	move	a1,zero
9d002c68:	8fa30228 	lw	v1,552(sp)
9d002c6c:	afa30010 	sw	v1,16(sp)
9d002c70:	0440006f 	bltz	v0,9d002e30 <_fconvert+0x57c>
9d002c74:	8fa40260 	lw	a0,608(sp)
9d002c78:	3c059d00 	lui	a1,0x9d00
9d002c7c:	24a54f7c 	addiu	a1,a1,20348
9d002c80:	24060004 	li	a2,4
9d002c84:	0f4010e0 	jal	9d004380 <_outcnvrt>
9d002c88:	02e03821 	move	a3,s7
9d002c8c:	8fbf025c 	lw	ra,604(sp)
9d002c90:	8fbe0258 	lw	s8,600(sp)
9d002c94:	8fb70254 	lw	s7,596(sp)
9d002c98:	8fb60250 	lw	s6,592(sp)
9d002c9c:	8fb5024c 	lw	s5,588(sp)
9d002ca0:	8fb40248 	lw	s4,584(sp)
9d002ca4:	8fb30244 	lw	s3,580(sp)
9d002ca8:	8fb20240 	lw	s2,576(sp)
9d002cac:	8fb1023c 	lw	s1,572(sp)
9d002cb0:	8fb00238 	lw	s0,568(sp)
9d002cb4:	03e00008 	jr	ra
9d002cb8:	27bd0260 	addiu	sp,sp,608
9d002cbc:	a3a2001a 	sb	v0,26(sp)
9d002cc0:	27b0001b 	addiu	s0,sp,27
9d002cc4:	16a0ff9f 	bnez	s5,9d002b44 <_fconvert+0x290>
9d002cc8:	27b2001a 	addiu	s2,sp,26
9d002ccc:	8fa30228 	lw	v1,552(sp)
9d002cd0:	30620800 	andi	v0,v1,0x800
9d002cd4:	1440005d 	bnez	v0,9d002e4c <_fconvert+0x598>
9d002cd8:	02c02021 	move	a0,s6
9d002cdc:	0f4012da 	jal	9d004b68 <__eqsf2>
9d002ce0:	00002821 	move	a1,zero
9d002ce4:	1040ffbb 	beqz	v0,9d002bd4 <_fconvert+0x320>
9d002ce8:	02009821 	move	s3,s0
9d002cec:	3c109d00 	lui	s0,0x9d00
9d002cf0:	8e054fcc 	lw	a1,20428(s0)
9d002cf4:	02c02021 	move	a0,s6
9d002cf8:	0f401021 	jal	9d004084 <.LFE9>
9d002cfc:	2670ffff 	addiu	s0,s3,-1
9d002d00:	00402021 	move	a0,v0
9d002d04:	0f40121e 	jal	9d004878 <fpmodf>
9d002d08:	27a5021c 	addiu	a1,sp,540
9d002d0c:	3c029d00 	lui	v0,0x9d00
9d002d10:	8c444fd4 	lw	a0,20436(v0)
9d002d14:	0f4012da 	jal	9d004b68 <__eqsf2>
9d002d18:	8fa5021c 	lw	a1,540(sp)
9d002d1c:	2404002e 	li	a0,46
9d002d20:	0440000b 	bltz	v0,9d002d50 <_fconvert+0x49c>
9d002d24:	24050030 	li	a1,48
9d002d28:	0b400af6 	j	9d002bd8 <_fconvert+0x324>
9d002d2c:	02729823 	subu	s3,s3,s2
9d002d30:	24420001 	addiu	v0,v0,1
9d002d34:	7c021420 	seb	v0,v0
9d002d38:	2843003a 	slti	v1,v0,58
9d002d3c:	5460004c 	bnezl	v1,9d002e70 <_fconvert+0x5bc>
9d002d40:	a2020000 	sb	v0,0(s0)
9d002d44:	1212004e 	beq	s0,s2,9d002e80 <_fconvert+0x5cc>
9d002d48:	a2050000 	sb	a1,0(s0)
9d002d4c:	2610ffff 	addiu	s0,s0,-1
9d002d50:	82020000 	lb	v0,0(s0)
9d002d54:	5444fff7 	bnel	v0,a0,9d002d34 <_fconvert+0x480>
9d002d58:	24420001 	addiu	v0,v0,1
9d002d5c:	8202ffff 	lb	v0,-1(s0)
9d002d60:	0b400b4c 	j	9d002d30 <_fconvert+0x47c>
9d002d64:	2610ffff 	addiu	s0,s0,-1
9d002d68:	24630001 	addiu	v1,v1,1
9d002d6c:	02631821 	addu	v1,s3,v1
9d002d70:	24020030 	li	v0,48
9d002d74:	26730001 	addiu	s3,s3,1
9d002d78:	1663fffe 	bne	s3,v1,9d002d74 <_fconvert+0x4c0>
9d002d7c:	a262ffff 	sb	v0,-1(s3)
9d002d80:	0b400af6 	j	9d002bd8 <_fconvert+0x324>
9d002d84:	02729823 	subu	s3,s3,s2
9d002d88:	afa0022c 	sw	zero,556(sp)
9d002d8c:	24150006 	li	s5,6
9d002d90:	a3a00019 	sb	zero,25(sp)
9d002d94:	0601feec 	bgez	s0,9d002948 <_fconvert+0x94>
9d002d98:	afa00230 	sw	zero,560(sp)
9d002d9c:	0b400abb 	j	9d002aec <_fconvert+0x238>
9d002da0:	3c028000 	lui	v0,0x8000
9d002da4:	2403002b 	li	v1,43
9d002da8:	a043ffff 	sb	v1,-1(v0)
9d002dac:	0b400a8b 	j	9d002a2c <_fconvert+0x178>
9d002db0:	26730001 	addiu	s3,s3,1
9d002db4:	8fa5022c 	lw	a1,556(sp)
9d002db8:	3c069d00 	lui	a2,0x9d00
9d002dbc:	0f4012b3 	jal	9d004acc <repl>
9d002dc0:	24c64f8c 	addiu	a2,a2,20364
9d002dc4:	1452ff96 	bne	v0,s2,9d002c20 <_fconvert+0x36c>
9d002dc8:	0217102a 	slt	v0,s0,s7
9d002dcc:	0b400aa1 	j	9d002a84 <_fconvert+0x1d0>
9d002dd0:	0202b80a 	movz	s7,s0,v0
9d002dd4:	8fa30228 	lw	v1,552(sp)
9d002dd8:	afa30010 	sw	v1,16(sp)
9d002ddc:	8fa40260 	lw	a0,608(sp)
9d002de0:	3c059d00 	lui	a1,0x9d00
9d002de4:	24a54f70 	addiu	a1,a1,20336
9d002de8:	24060003 	li	a2,3
9d002dec:	0f4010e0 	jal	9d004380 <_outcnvrt>
9d002df0:	02e03821 	move	a3,s7
9d002df4:	0b400aa3 	j	9d002a8c <_fconvert+0x1d8>
9d002df8:	8fbf025c 	lw	ra,604(sp)
9d002dfc:	30620800 	andi	v0,v1,0x800
9d002e00:	5440fecc 	bnezl	v0,9d002934 <_fconvert+0x80>
9d002e04:	26b5ffd9 	addiu	s5,s5,-39
9d002e08:	0b400a4f 	j	9d00293c <_fconvert+0x88>
9d002e0c:	24150027 	li	s5,39
9d002e10:	3c069d00 	lui	a2,0x9d00
9d002e14:	0f4012b3 	jal	9d004acc <repl>
9d002e18:	24c64fac 	addiu	a2,a2,20396
9d002e1c:	0b400a9d 	j	9d002a74 <_fconvert+0x1c0>
9d002e20:	2403ffff 	li	v1,-1
9d002e24:	00008821 	move	s1,zero
9d002e28:	0b400a7b 	j	9d0029ec <_fconvert+0x138>
9d002e2c:	27b00218 	addiu	s0,sp,536
9d002e30:	3c059d00 	lui	a1,0x9d00
9d002e34:	24a54f74 	addiu	a1,a1,20340
9d002e38:	24060004 	li	a2,4
9d002e3c:	0f4010e0 	jal	9d004380 <_outcnvrt>
9d002e40:	02e03821 	move	a3,s7
9d002e44:	0b400aa3 	j	9d002a8c <_fconvert+0x1d8>
9d002e48:	8fbf025c 	lw	ra,604(sp)
9d002e4c:	00002821 	move	a1,zero
9d002e50:	26130001 	addiu	s3,s0,1
9d002e54:	2402002e 	li	v0,46
9d002e58:	0f4012da 	jal	9d004b68 <__eqsf2>
9d002e5c:	a2020000 	sb	v0,0(s0)
9d002e60:	5440ffa3 	bnezl	v0,9d002cf0 <_fconvert+0x43c>
9d002e64:	3c109d00 	lui	s0,0x9d00
9d002e68:	0b400af6 	j	9d002bd8 <_fconvert+0x324>
9d002e6c:	02729823 	subu	s3,s3,s2
9d002e70:	0b400af6 	j	9d002bd8 <_fconvert+0x324>
9d002e74:	02729823 	subu	s3,s3,s2
9d002e78:	0b400acf 	j	9d002b3c <_fconvert+0x288>
9d002e7c:	02408021 	move	s0,s2
9d002e80:	24020031 	li	v0,49
9d002e84:	a3a20019 	sb	v0,25(sp)
9d002e88:	27b20019 	addiu	s2,sp,25
9d002e8c:	0b400af6 	j	9d002bd8 <_fconvert+0x324>
9d002e90:	02729823 	subu	s3,s3,s2

Disassembly of section .text:

9d002e94 <__umoddi3>:
9d002e94:	00c04021 	move	t0,a2
9d002e98:	00804821 	move	t1,a0
9d002e9c:	14e0003b 	bnez	a3,9d002f8c <.LBE15+0xc>
9d002ea0:	00a01821 	move	v1,a1
9d002ea4:	00a6102b 	sltu	v0,a1,a2
9d002ea8:	10400048 	beqz	v0,9d002fcc <.LBE16+0x8>
9d002eac:	70c21020 	clz	v0,a2
9d002eb0:	50400008 	beqzl	v0,9d002ed4 <.LBB15+0x4>
9d002eb4:	00083402 	srl	a2,t0,0x10
9d002eb8:	00021823 	negu	v1,v0
9d002ebc:	00452804 	sllv	a1,a1,v0
9d002ec0:	00641806 	srlv	v1,a0,v1
9d002ec4:	00464004 	sllv	t0,a2,v0
9d002ec8:	00651825 	or	v1,v1,a1
9d002ecc:	00444804 	sllv	t1,a0,v0

9d002ed0 <.LBB15>:
9d002ed0:	00083402 	srl	a2,t0,0x10
9d002ed4:	0066001b 	divu	zero,v1,a2
9d002ed8:	00c001f4 	teq	a2,zero,0x7
9d002edc:	00002010 	mfhi	a0
9d002ee0:	00005812 	mflo	t3
9d002ee4:	310cffff 	andi	t4,t0,0xffff
9d002ee8:	00095402 	srl	t2,t1,0x10
9d002eec:	716c5802 	mul	t3,t3,t4
9d002ef0:	00042400 	sll	a0,a0,0x10
9d002ef4:	008a5025 	or	t2,a0,t2
9d002ef8:	014b682b 	sltu	t5,t2,t3
9d002efc:	0066001b 	divu	zero,v1,a2
9d002f00:	00c001f4 	teq	a2,zero,0x7
9d002f04:	51a00009 	beqzl	t5,9d002f2c <.LBB15+0x5c>
9d002f08:	014b5023 	subu	t2,t2,t3
9d002f0c:	01485021 	addu	t2,t2,t0
9d002f10:	0148182b 	sltu	v1,t2,t0
9d002f14:	54600005 	bnezl	v1,9d002f2c <.LBB15+0x5c>
9d002f18:	014b5023 	subu	t2,t2,t3
9d002f1c:	014b202b 	sltu	a0,t2,t3
9d002f20:	01481821 	addu	v1,t2,t0
9d002f24:	0064500b 	movn	t2,v1,a0
9d002f28:	014b5023 	subu	t2,t2,t3
9d002f2c:	3123ffff 	andi	v1,t1,0xffff
9d002f30:	0146001b 	divu	zero,t2,a2
9d002f34:	00c001f4 	teq	a2,zero,0x7
9d002f38:	00004810 	mfhi	t1
9d002f3c:	00002012 	mflo	a0
9d002f40:	708c2002 	mul	a0,a0,t4
9d002f44:	00094c00 	sll	t1,t1,0x10
9d002f48:	01234825 	or	t1,t1,v1
9d002f4c:	0124182b 	sltu	v1,t1,a0
9d002f50:	0146001b 	divu	zero,t2,a2
9d002f54:	00c001f4 	teq	a2,zero,0x7
9d002f58:	50600009 	beqzl	v1,9d002f80 <.LBE15>
9d002f5c:	01244823 	subu	t1,t1,a0
9d002f60:	01284821 	addu	t1,t1,t0
9d002f64:	0128182b 	sltu	v1,t1,t0
9d002f68:	54600005 	bnezl	v1,9d002f80 <.LBE15>
9d002f6c:	01244823 	subu	t1,t1,a0
9d002f70:	0124182b 	sltu	v1,t1,a0
9d002f74:	01284021 	addu	t0,t1,t0
9d002f78:	0103480b 	movn	t1,t0,v1
9d002f7c:	01244823 	subu	t1,t1,a0

9d002f80 <.LBE15>:
9d002f80:	00491006 	srlv	v0,t1,v0
9d002f84:	03e00008 	jr	ra
9d002f88:	00001821 	move	v1,zero
9d002f8c:	00a7102b 	sltu	v0,a1,a3
9d002f90:	14400047 	bnez	v0,9d0030b0 <.LBE17+0xc>
9d002f94:	70ea5020 	clz	t2,a3
9d002f98:	15400048 	bnez	t2,9d0030bc <.LBE17+0x18>
9d002f9c:	240b0020 	li	t3,32
9d002fa0:	00e5102b 	sltu	v0,a3,a1
9d002fa4:	14400005 	bnez	v0,9d002fbc <.LBB16+0x4>
9d002fa8:	00861023 	subu	v0,a0,a2
9d002fac:	0086402b 	sltu	t0,a0,a2
9d002fb0:	15000089 	bnez	t0,9d0031d8 <.LBE24+0x10>
9d002fb4:	00801021 	move	v0,a0

9d002fb8 <.LBB16>:
9d002fb8:	00861023 	subu	v0,a0,a2
9d002fbc:	00a72823 	subu	a1,a1,a3
9d002fc0:	0082202b 	sltu	a0,a0,v0

9d002fc4 <.LBE16>:
9d002fc4:	03e00008 	jr	ra
9d002fc8:	00a41823 	subu	v1,a1,a0
9d002fcc:	14c00006 	bnez	a2,9d002fe8 <.LBE16+0x24>
9d002fd0:	71021020 	clz	v0,t0
9d002fd4:	24020001 	li	v0,1
9d002fd8:	0046001b 	divu	zero,v0,a2
9d002fdc:	00c001f4 	teq	a2,zero,0x7
9d002fe0:	00004012 	mflo	t0
9d002fe4:	71021020 	clz	v0,t0
9d002fe8:	5440007d 	bnezl	v0,9d0031e0 <.LBE24+0x18>
9d002fec:	00484004 	sllv	t0,t0,v0
9d002ff0:	00a82823 	subu	a1,a1,t0
9d002ff4:	00081c02 	srl	v1,t0,0x10
9d002ff8:	3107ffff 	andi	a3,t0,0xffff

9d002ffc <.LBB17>:
9d002ffc:	00092402 	srl	a0,t1,0x10
9d003000:	00a3001b 	divu	zero,a1,v1
9d003004:	006001f4 	teq	v1,zero,0x7
9d003008:	00005010 	mfhi	t2
9d00300c:	00003012 	mflo	a2
9d003010:	70c73002 	mul	a2,a2,a3
9d003014:	000a5400 	sll	t2,t2,0x10
9d003018:	01442025 	or	a0,t2,a0
9d00301c:	0086502b 	sltu	t2,a0,a2
9d003020:	00a3001b 	divu	zero,a1,v1
9d003024:	006001f4 	teq	v1,zero,0x7
9d003028:	51400009 	beqzl	t2,9d003050 <.LBB17+0x54>
9d00302c:	00862023 	subu	a0,a0,a2
9d003030:	00882021 	addu	a0,a0,t0
9d003034:	0088282b 	sltu	a1,a0,t0
9d003038:	54a00005 	bnezl	a1,9d003050 <.LBB17+0x54>
9d00303c:	00862023 	subu	a0,a0,a2
9d003040:	0086502b 	sltu	t2,a0,a2
9d003044:	00882821 	addu	a1,a0,t0
9d003048:	00aa200b 	movn	a0,a1,t2
9d00304c:	00862023 	subu	a0,a0,a2
9d003050:	3126ffff 	andi	a2,t1,0xffff
9d003054:	0083001b 	divu	zero,a0,v1
9d003058:	006001f4 	teq	v1,zero,0x7
9d00305c:	00004810 	mfhi	t1
9d003060:	00002812 	mflo	a1
9d003064:	70a72802 	mul	a1,a1,a3
9d003068:	00094c00 	sll	t1,t1,0x10
9d00306c:	01264825 	or	t1,t1,a2
9d003070:	0125302b 	sltu	a2,t1,a1
9d003074:	0083001b 	divu	zero,a0,v1
9d003078:	006001f4 	teq	v1,zero,0x7
9d00307c:	50c00009 	beqzl	a2,9d0030a4 <.LBE17>
9d003080:	01254823 	subu	t1,t1,a1
9d003084:	01284821 	addu	t1,t1,t0
9d003088:	0128182b 	sltu	v1,t1,t0
9d00308c:	54600005 	bnezl	v1,9d0030a4 <.LBE17>
9d003090:	01254823 	subu	t1,t1,a1
9d003094:	0125182b 	sltu	v1,t1,a1
9d003098:	01284021 	addu	t0,t1,t0
9d00309c:	0103480b 	movn	t1,t0,v1
9d0030a0:	01254823 	subu	t1,t1,a1

9d0030a4 <.LBE17>:
9d0030a4:	00491006 	srlv	v0,t1,v0
9d0030a8:	03e00008 	jr	ra
9d0030ac:	00001821 	move	v1,zero
9d0030b0:	00801021 	move	v0,a0
9d0030b4:	03e00008 	jr	ra
9d0030b8:	00a01821 	move	v1,a1
9d0030bc:	016a5823 	subu	t3,t3,t2
9d0030c0:	01473804 	sllv	a3,a3,t2
9d0030c4:	01661006 	srlv	v0,a2,t3
9d0030c8:	00473825 	or	a3,v0,a3
9d0030cc:	01656806 	srlv	t5,a1,t3
9d0030d0:	00074c02 	srl	t1,a3,0x10
9d0030d4:	01a9001b 	divu	zero,t5,t1
9d0030d8:	012001f4 	teq	t1,zero,0x7
9d0030dc:	00006010 	mfhi	t4
9d0030e0:	00001812 	mflo	v1
9d0030e4:	30eeffff 	andi	t6,a3,0xffff
9d0030e8:	01452804 	sllv	a1,a1,t2
9d0030ec:	01641006 	srlv	v0,a0,t3
9d0030f0:	00451025 	or	v0,v0,a1
9d0030f4:	00022c02 	srl	a1,v0,0x10
9d0030f8:	01463004 	sllv	a2,a2,t2
9d0030fc:	00004012 	mflo	t0
9d003100:	706e7802 	mul	t7,v1,t6
9d003104:	000c6400 	sll	t4,t4,0x10
9d003108:	01856025 	or	t4,t4,a1
9d00310c:	018f282b 	sltu	a1,t4,t7
9d003110:	01a9001b 	divu	zero,t5,t1
9d003114:	012001f4 	teq	t1,zero,0x7
9d003118:	10a0000a 	beqz	a1,9d003144 <.LBE17+0xa0>
9d00311c:	01442004 	sllv	a0,a0,t2
9d003120:	01876021 	addu	t4,t4,a3
9d003124:	0187282b 	sltu	a1,t4,a3
9d003128:	14a00006 	bnez	a1,9d003144 <.LBE17+0xa0>
9d00312c:	2468ffff 	addiu	t0,v1,-1
9d003130:	018f282b 	sltu	a1,t4,t7
9d003134:	50a00004 	beqzl	a1,9d003148 <.LBE17+0xa4>
9d003138:	018f6023 	subu	t4,t4,t7
9d00313c:	2468fffe 	addiu	t0,v1,-2
9d003140:	01876021 	addu	t4,t4,a3
9d003144:	018f6023 	subu	t4,t4,t7
9d003148:	3042ffff 	andi	v0,v0,0xffff
9d00314c:	0189001b 	divu	zero,t4,t1
9d003150:	012001f4 	teq	t1,zero,0x7
9d003154:	00002810 	mfhi	a1
9d003158:	00001812 	mflo	v1
9d00315c:	00006812 	mflo	t5
9d003160:	706e7002 	mul	t6,v1,t6
9d003164:	00052c00 	sll	a1,a1,0x10
9d003168:	00a21025 	or	v0,a1,v0
9d00316c:	004e282b 	sltu	a1,v0,t6
9d003170:	0189001b 	divu	zero,t4,t1
9d003174:	012001f4 	teq	t1,zero,0x7
9d003178:	50a00006 	beqzl	a1,9d003194 <.LBE17+0xf0>
9d00317c:	00084400 	sll	t0,t0,0x10
9d003180:	00471021 	addu	v0,v0,a3
9d003184:	0047282b 	sltu	a1,v0,a3
9d003188:	10a0004c 	beqz	a1,9d0032bc <.LBE25>
9d00318c:	246dffff 	addiu	t5,v1,-1
9d003190:	00084400 	sll	t0,t0,0x10
9d003194:	01a84025 	or	t0,t5,t0
9d003198:	004e1023 	subu	v0,v0,t6
9d00319c:	01060019 	multu	t0,a2
9d0031a0:	00004810 	mfhi	t1
9d0031a4:	0049182b 	sltu	v1,v0,t1
9d0031a8:	1460003e 	bnez	v1,9d0032a4 <.LBB25>
9d0031ac:	00004012 	mflo	t0
9d0031b0:	1049004b 	beq	v0,t1,9d0032e0 <.LBE25+0x24>
9d0031b4:	00491823 	subu	v1,v0,t1
9d0031b8:	00003012 	mflo	a2

9d0031bc <.LBB24>:
9d0031bc:	00863023 	subu	a2,a0,a2
9d0031c0:	0086202b 	sltu	a0,a0,a2
9d0031c4:	00641823 	subu	v1,v1,a0

9d0031c8 <.LBE24>:
9d0031c8:	01631004 	sllv	v0,v1,t3
9d0031cc:	01463006 	srlv	a2,a2,t2
9d0031d0:	00461025 	or	v0,v0,a2
9d0031d4:	01431806 	srlv	v1,v1,t2
9d0031d8:	03e00008 	jr	ra
9d0031dc:	00000000 	nop
9d0031e0:	24090020 	li	t1,32
9d0031e4:	01224823 	subu	t1,t1,v0
9d0031e8:	01255006 	srlv	t2,a1,t1
9d0031ec:	00081c02 	srl	v1,t0,0x10
9d0031f0:	0143001b 	divu	zero,t2,v1
9d0031f4:	006001f4 	teq	v1,zero,0x7
9d0031f8:	00003010 	mfhi	a2
9d0031fc:	00005812 	mflo	t3
9d003200:	3107ffff 	andi	a3,t0,0xffff
9d003204:	00452804 	sllv	a1,a1,v0
9d003208:	01244806 	srlv	t1,a0,t1
9d00320c:	01252825 	or	a1,t1,a1
9d003210:	00056402 	srl	t4,a1,0x10
9d003214:	00444804 	sllv	t1,a0,v0
9d003218:	71675802 	mul	t3,t3,a3
9d00321c:	00063400 	sll	a2,a2,0x10
9d003220:	01863025 	or	a2,t4,a2
9d003224:	00cb202b 	sltu	a0,a2,t3
9d003228:	0143001b 	divu	zero,t2,v1
9d00322c:	006001f4 	teq	v1,zero,0x7
9d003230:	50800006 	beqzl	a0,9d00324c <.LBE24+0x84>
9d003234:	00cb3023 	subu	a2,a2,t3
9d003238:	00c83021 	addu	a2,a2,t0
9d00323c:	00c8202b 	sltu	a0,a2,t0
9d003240:	10800024 	beqz	a0,9d0032d4 <.LBE25+0x18>
9d003244:	00cb502b 	sltu	t2,a2,t3
9d003248:	00cb3023 	subu	a2,a2,t3
9d00324c:	30aaffff 	andi	t2,a1,0xffff
9d003250:	00c3001b 	divu	zero,a2,v1
9d003254:	006001f4 	teq	v1,zero,0x7
9d003258:	00002010 	mfhi	a0
9d00325c:	00002812 	mflo	a1
9d003260:	70a72802 	mul	a1,a1,a3
9d003264:	00042400 	sll	a0,a0,0x10
9d003268:	008a2025 	or	a0,a0,t2
9d00326c:	0085502b 	sltu	t2,a0,a1
9d003270:	00c3001b 	divu	zero,a2,v1
9d003274:	006001f4 	teq	v1,zero,0x7
9d003278:	5140ff60 	beqzl	t2,9d002ffc <.LBB17>
9d00327c:	00852823 	subu	a1,a0,a1
9d003280:	00882021 	addu	a0,a0,t0
9d003284:	0088302b 	sltu	a2,a0,t0
9d003288:	54c0ff5c 	bnezl	a2,9d002ffc <.LBB17>
9d00328c:	00852823 	subu	a1,a0,a1
9d003290:	0085502b 	sltu	t2,a0,a1
9d003294:	00883021 	addu	a2,a0,t0
9d003298:	00ca200b 	movn	a0,a2,t2
9d00329c:	0b400bff 	j	9d002ffc <.LBB17>
9d0032a0:	00852823 	subu	a1,a0,a1

9d0032a4 <.LBB25>:
9d0032a4:	01063023 	subu	a2,t0,a2
9d0032a8:	01271823 	subu	v1,t1,a3
9d0032ac:	0106402b 	sltu	t0,t0,a2
9d0032b0:	00681823 	subu	v1,v1,t0
9d0032b4:	0b400c6f 	j	9d0031bc <.LBB24>
9d0032b8:	00431823 	subu	v1,v0,v1

9d0032bc <.LBE25>:
9d0032bc:	004e282b 	sltu	a1,v0,t6
9d0032c0:	50a0ffb4 	beqzl	a1,9d003194 <.LBE17+0xf0>
9d0032c4:	00084400 	sll	t0,t0,0x10
9d0032c8:	246dfffe 	addiu	t5,v1,-2
9d0032cc:	0b400c64 	j	9d003190 <.LBE17+0xec>
9d0032d0:	00471021 	addu	v0,v0,a3
9d0032d4:	00c82021 	addu	a0,a2,t0
9d0032d8:	0b400c92 	j	9d003248 <.LBE24+0x80>
9d0032dc:	008a300b 	movn	a2,a0,t2
9d0032e0:	0088182b 	sltu	v1,a0,t0
9d0032e4:	5460fff0 	bnezl	v1,9d0032a8 <.LBB25+0x4>
9d0032e8:	01063023 	subu	a2,t0,a2
9d0032ec:	00003012 	mflo	a2
9d0032f0:	0b400c6f 	j	9d0031bc <.LBB24>
9d0032f4:	00001821 	move	v1,zero

9d0032f8 <__udivdi3>:
9d0032f8:	00c04021 	move	t0,a2
9d0032fc:	00801021 	move	v0,a0
9d003300:	14e0003f 	bnez	a3,9d003400 <.LBE15+0x8>
9d003304:	00a04821 	move	t1,a1
9d003308:	00a6182b 	sltu	v1,a1,a2
9d00330c:	10600047 	beqz	v1,9d00342c <.LBE15+0x34>
9d003310:	70c31820 	clz	v1,a2
9d003314:	50600008 	beqzl	v1,9d003338 <.LBB15+0x4>
9d003318:	00081c02 	srl	v1,t0,0x10
9d00331c:	00034823 	negu	t1,v1
9d003320:	00652804 	sllv	a1,a1,v1
9d003324:	01244806 	srlv	t1,a0,t1
9d003328:	00664004 	sllv	t0,a2,v1
9d00332c:	01254825 	or	t1,t1,a1
9d003330:	00641004 	sllv	v0,a0,v1

9d003334 <.LBB15>:
9d003334:	00081c02 	srl	v1,t0,0x10
9d003338:	0123001b 	divu	zero,t1,v1
9d00333c:	006001f4 	teq	v1,zero,0x7
9d003340:	00006010 	mfhi	t4
9d003344:	00005812 	mflo	t3
9d003348:	310affff 	andi	t2,t0,0xffff
9d00334c:	00022402 	srl	a0,v0,0x10
9d003350:	00003012 	mflo	a2
9d003354:	716a3802 	mul	a3,t3,t2
9d003358:	000c6400 	sll	t4,t4,0x10
9d00335c:	01842025 	or	a0,t4,a0
9d003360:	0087602b 	sltu	t4,a0,a3
9d003364:	0123001b 	divu	zero,t1,v1
9d003368:	006001f4 	teq	v1,zero,0x7
9d00336c:	1180000b 	beqz	t4,9d00339c <.LBB15+0x68>
9d003370:	00872823 	subu	a1,a0,a3
9d003374:	00882021 	addu	a0,a0,t0
9d003378:	0088282b 	sltu	a1,a0,t0
9d00337c:	14a00006 	bnez	a1,9d003398 <.LBB15+0x64>
9d003380:	2566ffff 	addiu	a2,t3,-1
9d003384:	0087282b 	sltu	a1,a0,a3
9d003388:	10a00004 	beqz	a1,9d00339c <.LBB15+0x68>
9d00338c:	00872823 	subu	a1,a0,a3
9d003390:	2566fffe 	addiu	a2,t3,-2
9d003394:	00882021 	addu	a0,a0,t0
9d003398:	00872823 	subu	a1,a0,a3
9d00339c:	3042ffff 	andi	v0,v0,0xffff
9d0033a0:	00a3001b 	divu	zero,a1,v1
9d0033a4:	006001f4 	teq	v1,zero,0x7
9d0033a8:	00004810 	mfhi	t1
9d0033ac:	00003812 	mflo	a3
9d0033b0:	00002012 	mflo	a0
9d0033b4:	70ea5002 	mul	t2,a3,t2
9d0033b8:	00094c00 	sll	t1,t1,0x10
9d0033bc:	01221025 	or	v0,t1,v0
9d0033c0:	004a482b 	sltu	t1,v0,t2
9d0033c4:	00a3001b 	divu	zero,a1,v1
9d0033c8:	006001f4 	teq	v1,zero,0x7
9d0033cc:	51200009 	beqzl	t1,9d0033f4 <.LBB15+0xc0>
9d0033d0:	00061400 	sll	v0,a2,0x10
9d0033d4:	00481021 	addu	v0,v0,t0
9d0033d8:	0048402b 	sltu	t0,v0,t0
9d0033dc:	15000004 	bnez	t0,9d0033f0 <.LBB15+0xbc>
9d0033e0:	24e4ffff 	addiu	a0,a3,-1
9d0033e4:	004a502b 	sltu	t2,v0,t2
9d0033e8:	24e7fffe 	addiu	a3,a3,-2
9d0033ec:	00ea200b 	movn	a0,a3,t2
9d0033f0:	00061400 	sll	v0,a2,0x10
9d0033f4:	00821025 	or	v0,a0,v0

9d0033f8 <.LBE15>:
9d0033f8:	03e00008 	jr	ra
9d0033fc:	00001821 	move	v1,zero
9d003400:	00a7102b 	sltu	v0,a1,a3
9d003404:	14400044 	bnez	v0,9d003518 <.LBE16+0x8>
9d003408:	70e84020 	clz	t0,a3
9d00340c:	55000045 	bnezl	t0,9d003524 <.LBE16+0x14>
9d003410:	24020020 	li	v0,32
9d003414:	00e5282b 	sltu	a1,a3,a1
9d003418:	14a000c8 	bnez	a1,9d00373c <.LBE20+0x120>
9d00341c:	0086302b 	sltu	a2,a0,a2
9d003420:	38c20001 	xori	v0,a2,0x1
9d003424:	03e00008 	jr	ra
9d003428:	00001821 	move	v1,zero
9d00342c:	14c00006 	bnez	a2,9d003448 <.LBE15+0x50>
9d003430:	71031820 	clz	v1,t0
9d003434:	24030001 	li	v1,1
9d003438:	0066001b 	divu	zero,v1,a2
9d00343c:	00c001f4 	teq	a2,zero,0x7
9d003440:	00004012 	mflo	t0
9d003444:	71031820 	clz	v1,t0
9d003448:	5460007b 	bnezl	v1,9d003638 <.LBE20+0x1c>
9d00344c:	00684004 	sllv	t0,t0,v1
9d003450:	00a82023 	subu	a0,a1,t0
9d003454:	00083c02 	srl	a3,t0,0x10
9d003458:	310bffff 	andi	t3,t0,0xffff
9d00345c:	24030001 	li	v1,1

9d003460 <.LBB16>:
9d003460:	00023402 	srl	a2,v0,0x10
9d003464:	0087001b 	divu	zero,a0,a3
9d003468:	00e001f4 	teq	a3,zero,0x7
9d00346c:	00006810 	mfhi	t5
9d003470:	00006012 	mflo	t4
9d003474:	00004812 	mflo	t1
9d003478:	718b5002 	mul	t2,t4,t3
9d00347c:	000d6c00 	sll	t5,t5,0x10
9d003480:	01a63025 	or	a2,t5,a2
9d003484:	00ca682b 	sltu	t5,a2,t2
9d003488:	0087001b 	divu	zero,a0,a3
9d00348c:	00e001f4 	teq	a3,zero,0x7
9d003490:	11a00009 	beqz	t5,9d0034b8 <.LBB16+0x58>
9d003494:	00ca2823 	subu	a1,a2,t2
9d003498:	00c83021 	addu	a2,a2,t0
9d00349c:	00c8202b 	sltu	a0,a2,t0
9d0034a0:	14800004 	bnez	a0,9d0034b4 <.LBB16+0x54>
9d0034a4:	2589ffff 	addiu	t1,t4,-1
9d0034a8:	00ca202b 	sltu	a0,a2,t2
9d0034ac:	548000a6 	bnezl	a0,9d003748 <.LBE20+0x12c>
9d0034b0:	2589fffe 	addiu	t1,t4,-2
9d0034b4:	00ca2823 	subu	a1,a2,t2
9d0034b8:	3042ffff 	andi	v0,v0,0xffff
9d0034bc:	00a7001b 	divu	zero,a1,a3
9d0034c0:	00e001f4 	teq	a3,zero,0x7
9d0034c4:	00005010 	mfhi	t2
9d0034c8:	00003012 	mflo	a2
9d0034cc:	00002012 	mflo	a0
9d0034d0:	70cb5802 	mul	t3,a2,t3
9d0034d4:	000a5400 	sll	t2,t2,0x10
9d0034d8:	01421025 	or	v0,t2,v0
9d0034dc:	004b502b 	sltu	t2,v0,t3
9d0034e0:	00a7001b 	divu	zero,a1,a3
9d0034e4:	00e001f4 	teq	a3,zero,0x7
9d0034e8:	51400009 	beqzl	t2,9d003510 <.LBE16>
9d0034ec:	00091400 	sll	v0,t1,0x10
9d0034f0:	00481021 	addu	v0,v0,t0
9d0034f4:	0048402b 	sltu	t0,v0,t0
9d0034f8:	15000004 	bnez	t0,9d00350c <.LBB16+0xac>
9d0034fc:	24c4ffff 	addiu	a0,a2,-1
9d003500:	004b582b 	sltu	t3,v0,t3
9d003504:	24c6fffe 	addiu	a2,a2,-2
9d003508:	00cb200b 	movn	a0,a2,t3
9d00350c:	00091400 	sll	v0,t1,0x10

9d003510 <.LBE16>:
9d003510:	03e00008 	jr	ra
9d003514:	00821025 	or	v0,a0,v0
9d003518:	00001821 	move	v1,zero
9d00351c:	03e00008 	jr	ra
9d003520:	00001021 	move	v0,zero
9d003524:	00481023 	subu	v0,v0,t0
9d003528:	01073804 	sllv	a3,a3,t0
9d00352c:	00461806 	srlv	v1,a2,v0
9d003530:	00673825 	or	a3,v1,a3
9d003534:	00455006 	srlv	t2,a1,v0
9d003538:	00071c02 	srl	v1,a3,0x10
9d00353c:	0143001b 	divu	zero,t2,v1
9d003540:	006001f4 	teq	v1,zero,0x7
9d003544:	00004810 	mfhi	t1
9d003548:	00006812 	mflo	t5
9d00354c:	30ebffff 	andi	t3,a3,0xffff
9d003550:	01052804 	sllv	a1,a1,t0
9d003554:	00441006 	srlv	v0,a0,v0
9d003558:	00452825 	or	a1,v0,a1
9d00355c:	00057402 	srl	t6,a1,0x10
9d003560:	00001012 	mflo	v0
9d003564:	71ab6002 	mul	t4,t5,t3
9d003568:	00094c00 	sll	t1,t1,0x10
9d00356c:	012e4825 	or	t1,t1,t6
9d003570:	012c702b 	sltu	t6,t1,t4
9d003574:	0143001b 	divu	zero,t2,v1
9d003578:	006001f4 	teq	v1,zero,0x7
9d00357c:	11c0000a 	beqz	t6,9d0035a8 <.LBE16+0x98>
9d003580:	01063004 	sllv	a2,a2,t0
9d003584:	01274821 	addu	t1,t1,a3
9d003588:	0127502b 	sltu	t2,t1,a3
9d00358c:	15400006 	bnez	t2,9d0035a8 <.LBE16+0x98>
9d003590:	25a2ffff 	addiu	v0,t5,-1
9d003594:	012c502b 	sltu	t2,t1,t4
9d003598:	51400004 	beqzl	t2,9d0035ac <.LBE16+0x9c>
9d00359c:	012c4823 	subu	t1,t1,t4
9d0035a0:	25a2fffe 	addiu	v0,t5,-2
9d0035a4:	01274821 	addu	t1,t1,a3
9d0035a8:	012c4823 	subu	t1,t1,t4
9d0035ac:	30a5ffff 	andi	a1,a1,0xffff
9d0035b0:	0123001b 	divu	zero,t1,v1
9d0035b4:	006001f4 	teq	v1,zero,0x7
9d0035b8:	00006810 	mfhi	t5
9d0035bc:	00006012 	mflo	t4
9d0035c0:	00005012 	mflo	t2
9d0035c4:	718b5802 	mul	t3,t4,t3
9d0035c8:	000d6c00 	sll	t5,t5,0x10
9d0035cc:	01a52825 	or	a1,t5,a1
9d0035d0:	00ab682b 	sltu	t5,a1,t3
9d0035d4:	0123001b 	divu	zero,t1,v1
9d0035d8:	006001f4 	teq	v1,zero,0x7
9d0035dc:	51a0000b 	beqzl	t5,9d00360c <.LBE16+0xfc>
9d0035e0:	00021400 	sll	v0,v0,0x10
9d0035e4:	00a72821 	addu	a1,a1,a3
9d0035e8:	00a7182b 	sltu	v1,a1,a3
9d0035ec:	14600006 	bnez	v1,9d003608 <.LBE16+0xf8>
9d0035f0:	258affff 	addiu	t2,t4,-1
9d0035f4:	00ab182b 	sltu	v1,a1,t3
9d0035f8:	50600004 	beqzl	v1,9d00360c <.LBE16+0xfc>
9d0035fc:	00021400 	sll	v0,v0,0x10
9d003600:	258afffe 	addiu	t2,t4,-2
9d003604:	00a72821 	addu	a1,a1,a3
9d003608:	00021400 	sll	v0,v0,0x10
9d00360c:	01421025 	or	v0,t2,v0
9d003610:	00ab2823 	subu	a1,a1,t3

9d003614 <.LBB20>:
9d003614:	00460019 	multu	v0,a2
9d003618:	00003810 	mfhi	a3

9d00361c <.LBE20>:
9d00361c:	00a7182b 	sltu	v1,a1,a3
9d003620:	14600044 	bnez	v1,9d003734 <.LBE20+0x118>
9d003624:	00003012 	mflo	a2
9d003628:	10a7003f 	beq	a1,a3,9d003728 <.LBE20+0x10c>
9d00362c:	01042004 	sllv	a0,a0,t0
9d003630:	03e00008 	jr	ra
9d003634:	00001821 	move	v1,zero
9d003638:	24020020 	li	v0,32
9d00363c:	00431023 	subu	v0,v0,v1
9d003640:	00454806 	srlv	t1,a1,v0
9d003644:	00083c02 	srl	a3,t0,0x10
9d003648:	0127001b 	divu	zero,t1,a3
9d00364c:	00e001f4 	teq	a3,zero,0x7
9d003650:	00003010 	mfhi	a2
9d003654:	00006012 	mflo	t4
9d003658:	310bffff 	andi	t3,t0,0xffff
9d00365c:	00652804 	sllv	a1,a1,v1
9d003660:	00441006 	srlv	v0,a0,v0
9d003664:	00452825 	or	a1,v0,a1
9d003668:	00056c02 	srl	t5,a1,0x10
9d00366c:	00641004 	sllv	v0,a0,v1
9d003670:	00001812 	mflo	v1
9d003674:	718b5002 	mul	t2,t4,t3
9d003678:	00063400 	sll	a2,a2,0x10
9d00367c:	01a63025 	or	a2,t5,a2
9d003680:	00ca202b 	sltu	a0,a2,t2
9d003684:	0127001b 	divu	zero,t1,a3
9d003688:	00e001f4 	teq	a3,zero,0x7
9d00368c:	5080000b 	beqzl	a0,9d0036bc <.LBE20+0xa0>
9d003690:	00ca3023 	subu	a2,a2,t2
9d003694:	00c83021 	addu	a2,a2,t0
9d003698:	00c8202b 	sltu	a0,a2,t0
9d00369c:	14800006 	bnez	a0,9d0036b8 <.LBE20+0x9c>
9d0036a0:	2583ffff 	addiu	v1,t4,-1
9d0036a4:	00ca202b 	sltu	a0,a2,t2
9d0036a8:	50800004 	beqzl	a0,9d0036bc <.LBE20+0xa0>
9d0036ac:	00ca3023 	subu	a2,a2,t2
9d0036b0:	2583fffe 	addiu	v1,t4,-2
9d0036b4:	00c83021 	addu	a2,a2,t0
9d0036b8:	00ca3023 	subu	a2,a2,t2
9d0036bc:	30acffff 	andi	t4,a1,0xffff
9d0036c0:	00c7001b 	divu	zero,a2,a3
9d0036c4:	00e001f4 	teq	a3,zero,0x7
9d0036c8:	00002010 	mfhi	a0
9d0036cc:	00005012 	mflo	t2
9d0036d0:	00004812 	mflo	t1
9d0036d4:	714b2802 	mul	a1,t2,t3
9d0036d8:	00042400 	sll	a0,a0,0x10
9d0036dc:	008c2025 	or	a0,a0,t4
9d0036e0:	0085602b 	sltu	t4,a0,a1
9d0036e4:	00c7001b 	divu	zero,a2,a3
9d0036e8:	00e001f4 	teq	a3,zero,0x7
9d0036ec:	5180000b 	beqzl	t4,9d00371c <.LBE20+0x100>
9d0036f0:	00031c00 	sll	v1,v1,0x10
9d0036f4:	00882021 	addu	a0,a0,t0
9d0036f8:	0088302b 	sltu	a2,a0,t0
9d0036fc:	14c00006 	bnez	a2,9d003718 <.LBE20+0xfc>
9d003700:	2549ffff 	addiu	t1,t2,-1
9d003704:	0085302b 	sltu	a2,a0,a1
9d003708:	50c00004 	beqzl	a2,9d00371c <.LBE20+0x100>
9d00370c:	00031c00 	sll	v1,v1,0x10
9d003710:	2549fffe 	addiu	t1,t2,-2
9d003714:	00882021 	addu	a0,a0,t0
9d003718:	00031c00 	sll	v1,v1,0x10
9d00371c:	00852023 	subu	a0,a0,a1
9d003720:	0b400d18 	j	9d003460 <.LBB16>
9d003724:	01231825 	or	v1,t1,v1
9d003728:	0086302b 	sltu	a2,a0,a2
9d00372c:	10c0ffc0 	beqz	a2,9d003630 <.LBE20+0x14>
9d003730:	00000000 	nop
9d003734:	0b400d8c 	j	9d003630 <.LBE20+0x14>
9d003738:	2442ffff 	addiu	v0,v0,-1
9d00373c:	00001821 	move	v1,zero
9d003740:	03e00008 	jr	ra
9d003744:	24020001 	li	v0,1
9d003748:	0b400d2d 	j	9d0034b4 <.LBB16+0x54>
9d00374c:	00c83021 	addu	a2,a2,t0

Disassembly of section .text:

9d003750 <adc_sample_convert>:
#define SAMPLE_TIME 10       // 10 core timer ticks = 250 ns
#define DELAY_TICKS 20000000 // delay 1/2 sec, 20 M core ticks, between messages
unsigned int sample0 = 0, elapsed = 0;
char msg[100] = {};

unsigned int adc_sample_convert(int pin) { // sample & convert the value on the given 
9d003750:	27bdfff8 	addiu	sp,sp,-8
9d003754:	afbf0004 	sw	ra,4(sp)
                                           // adc pin the pin should be configured as an 
                                           // analog input in AD1PCFG
    unsigned int elapsed = 0, finish_time = 0;
    AD1CHSbits.CH0SA = pin;                // connect chosen pin to MUXA for sampling
9d003758:	3c02bf81 	lui	v0,0xbf81
9d00375c:	8c439040 	lw	v1,-28608(v0)
9d003760:	7c839c04 	ins	v1,a0,0x10,0x4
9d003764:	ac439040 	sw	v1,-28608(v0)
    AD1CON1bits.SAMP = 1;                  // start sampling
9d003768:	3c02bf81 	lui	v0,0xbf81
9d00376c:	94439000 	lhu	v1,-28672(v0)
9d003770:	24040001 	li	a0,1
9d003774:	7c830844 	ins	v1,a0,0x1,0x1
9d003778:	a4439000 	sh	v1,-28672(v0)
    elapsed = _CP0_GET_COUNT();
9d00377c:	40034800 	mfc0	v1,c0_count
    finish_time = elapsed + SAMPLE_TIME;
9d003780:	2463000a 	addiu	v1,v1,10
    while (_CP0_GET_COUNT() < finish_time) { 
9d003784:	40024800 	mfc0	v0,c0_count
9d003788:	0043102b 	sltu	v0,v0,v1
9d00378c:	1440fffd 	bnez	v0,9d003784 <adc_sample_convert+0x34>
9d003790:	3c02bf81 	lui	v0,0xbf81
      ;                                   // sample for more than 250 ns
    }
    AD1CON1bits.SAMP = 0;                 // stop sampling and start converting
9d003794:	94439000 	lhu	v1,-28672(v0)
9d003798:	7c030844 	ins	v1,zero,0x1,0x1
9d00379c:	a4439000 	sh	v1,-28672(v0)
    while (!AD1CON1bits.DONE) {
9d0037a0:	00401821 	move	v1,v0
9d0037a4:	8c629000 	lw	v0,-28672(v1)
9d0037a8:	30420001 	andi	v0,v0,0x1
9d0037ac:	1040fffd 	beqz	v0,9d0037a4 <adc_sample_convert+0x54>
9d0037b0:	3c02bf81 	lui	v0,0xbf81
      ;                                   // wait for the conversion process to finish
    }
    return ADC1BUF0;                      // read the buffer with the result
9d0037b4:	8c429070 	lw	v0,-28560(v0)
}
9d0037b8:	8fbf0004 	lw	ra,4(sp)
9d0037bc:	03e00008 	jr	ra
9d0037c0:	27bd0008 	addiu	sp,sp,8

9d0037c4 <Timer1ISR>:

void __ISR(_TIMER_1_VECTOR, IPL5SOFT) Timer1ISR(void) {  // INT step 1: the ISR
9d0037c4:	415de800 	rdpgpr	sp,sp
9d0037c8:	401a7000 	mfc0	k0,c0_epc
9d0037cc:	401b6000 	mfc0	k1,c0_status
9d0037d0:	27bdff88 	addiu	sp,sp,-120
9d0037d4:	afba0074 	sw	k0,116(sp)
9d0037d8:	401a6002 	mfc0	k0,c0_srsctl
9d0037dc:	afbb0070 	sw	k1,112(sp)
9d0037e0:	afba006c 	sw	k0,108(sp)
9d0037e4:	7c1b7844 	ins	k1,zero,0x1,0xf
9d0037e8:	377b1400 	ori	k1,k1,0x1400
9d0037ec:	409b6000 	mtc0	k1,c0_status
9d0037f0:	afbf005c 	sw	ra,92(sp)
9d0037f4:	afb90058 	sw	t9,88(sp)
9d0037f8:	afb80054 	sw	t8,84(sp)
9d0037fc:	afb10050 	sw	s1,80(sp)
9d003800:	afb0004c 	sw	s0,76(sp)
9d003804:	afaf0048 	sw	t7,72(sp)
9d003808:	afae0044 	sw	t6,68(sp)
9d00380c:	afad0040 	sw	t5,64(sp)
9d003810:	afac003c 	sw	t4,60(sp)
9d003814:	afab0038 	sw	t3,56(sp)
9d003818:	afaa0034 	sw	t2,52(sp)
9d00381c:	afa90030 	sw	t1,48(sp)
9d003820:	afa8002c 	sw	t0,44(sp)
9d003824:	afa70028 	sw	a3,40(sp)
9d003828:	afa60024 	sw	a2,36(sp)
9d00382c:	afa50020 	sw	a1,32(sp)
9d003830:	afa4001c 	sw	a0,28(sp)
9d003834:	afa30018 	sw	v1,24(sp)
9d003838:	afa20014 	sw	v0,20(sp)
9d00383c:	afa10010 	sw	at,16(sp)
9d003840:	00001012 	mflo	v0
9d003844:	afa20064 	sw	v0,100(sp)
9d003848:	00001810 	mfhi	v1
9d00384c:	afa30060 	sw	v1,96(sp)
    
    sample0 = adc_sample_convert(0);    // sample and convert pin 0
9d003850:	0f400dd4 	jal	9d003750 <adc_sample_convert>
9d003854:	00002021 	move	a0,zero

9d003858 <.LVL7>:
9d003858:	00408021 	move	s0,v0
9d00385c:	af82801c 	sw	v0,-32740(gp)
    
    
    sprintf(msg,"pin B0: %4u (%5.3f volts) \r\n", sample0, sample0 * VOLTS_PER_COUNT);
9d003860:	0f401423 	jal	9d00508c <__floatunsisf>
9d003864:	00402021 	move	a0,v0
9d003868:	00402021 	move	a0,v0
9d00386c:	3c029d00 	lui	v0,0x9d00
9d003870:	0f401021 	jal	9d004084 <.LFE9>
9d003874:	8c4552c4 	lw	a1,21188(v0)
9d003878:	3c11a000 	lui	s1,0xa000
9d00387c:	26240170 	addiu	a0,s1,368
9d003880:	3c059d00 	lui	a1,0x9d00
9d003884:	24a552a4 	addiu	a1,a1,21156
9d003888:	02003021 	move	a2,s0
9d00388c:	0f4013a7 	jal	9d004e9c <_sprintf_cdfFnopuxX>
9d003890:	00403821 	move	a3,v0

9d003894 <.LVL10>:
    NU32_WriteUART3(msg);
9d003894:	0f401012 	jal	9d004048 <NU32_WriteUART3>
9d003898:	26240170 	addiu	a0,s1,368

9d00389c <.LVL11>:
    
    IFS0bits.T1IF = 0;              // clear interrupt flag
9d00389c:	3c02bf88 	lui	v0,0xbf88
9d0038a0:	8c431030 	lw	v1,4144(v0)
9d0038a4:	7c032104 	ins	v1,zero,0x4,0x1
9d0038a8:	ac431030 	sw	v1,4144(v0)
}
9d0038ac:	8fa20064 	lw	v0,100(sp)
9d0038b0:	00400013 	mtlo	v0
9d0038b4:	8fa30060 	lw	v1,96(sp)
9d0038b8:	00600011 	mthi	v1
9d0038bc:	8fbf005c 	lw	ra,92(sp)
9d0038c0:	8fb90058 	lw	t9,88(sp)
9d0038c4:	8fb80054 	lw	t8,84(sp)
9d0038c8:	8fb10050 	lw	s1,80(sp)
9d0038cc:	8fb0004c 	lw	s0,76(sp)
9d0038d0:	8faf0048 	lw	t7,72(sp)
9d0038d4:	8fae0044 	lw	t6,68(sp)
9d0038d8:	8fad0040 	lw	t5,64(sp)
9d0038dc:	8fac003c 	lw	t4,60(sp)
9d0038e0:	8fab0038 	lw	t3,56(sp)
9d0038e4:	8faa0034 	lw	t2,52(sp)
9d0038e8:	8fa90030 	lw	t1,48(sp)
9d0038ec:	8fa8002c 	lw	t0,44(sp)
9d0038f0:	8fa70028 	lw	a3,40(sp)
9d0038f4:	8fa60024 	lw	a2,36(sp)
9d0038f8:	8fa50020 	lw	a1,32(sp)
9d0038fc:	8fa4001c 	lw	a0,28(sp)
9d003900:	8fa30018 	lw	v1,24(sp)
9d003904:	8fa20014 	lw	v0,20(sp)
9d003908:	8fa10010 	lw	at,16(sp)
9d00390c:	41606000 	di
9d003910:	000000c0 	ehb
9d003914:	8fba0074 	lw	k0,116(sp)
9d003918:	8fbb0070 	lw	k1,112(sp)
9d00391c:	409a7000 	mtc0	k0,c0_epc
9d003920:	8fba006c 	lw	k0,108(sp)
9d003924:	27bd0078 	addiu	sp,sp,120
9d003928:	409a6002 	mtc0	k0,c0_srsctl
9d00392c:	41dde800 	wrpgpr	sp,sp
9d003930:	409b6000 	mtc0	k1,c0_status
9d003934:	42000018 	eret

9d003938 <main>:

int main(void) {
9d003938:	27bdffe8 	addiu	sp,sp,-24
9d00393c:	afbf0014 	sw	ra,20(sp)


  NU32_Startup();                 // cache on, interrupts on, LED/button init, UART init
9d003940:	0f400fb0 	jal	9d003ec0 <NU32_Startup>
9d003944:	00000000 	nop

9d003948 <.LVL12>:
    
    __builtin_disable_interrupts(); // INT step 2: disable interrupts at CPU
9d003948:	41626000 	di	v0
9d00394c:	000000c0 	ehb
    // INT step 3: setup peripheral
    PR1 = 31249;                    //             set period register
9d003950:	24037a11 	li	v1,31249
9d003954:	3c02bf80 	lui	v0,0xbf80
9d003958:	ac430620 	sw	v1,1568(v0)
    TMR1 = 0;                       //             initialize count to 0
9d00395c:	3c02bf80 	lui	v0,0xbf80
9d003960:	ac400610 	sw	zero,1552(v0)
    T1CONbits.TCKPS = 3;            //             set prescaler to 256
9d003964:	3c02bf80 	lui	v0,0xbf80
9d003968:	94430600 	lhu	v1,1536(v0)
9d00396c:	24040003 	li	a0,3
9d003970:	7c832904 	ins	v1,a0,0x4,0x2
9d003974:	a4430600 	sh	v1,1536(v0)
    T1CONbits.TGATE = 0;            //             not gated input (the default)
9d003978:	94430600 	lhu	v1,1536(v0)
9d00397c:	7c0339c4 	ins	v1,zero,0x7,0x1
9d003980:	a4430600 	sh	v1,1536(v0)
    T1CONbits.TCS = 0;              //             PCBLK input (the default)
9d003984:	94430600 	lhu	v1,1536(v0)
9d003988:	7c030844 	ins	v1,zero,0x1,0x1
9d00398c:	a4430600 	sh	v1,1536(v0)
    T1CONbits.ON = 1;               //             turn on Timer1
9d003990:	94440600 	lhu	a0,1536(v0)
9d003994:	24030001 	li	v1,1
9d003998:	7c647bc4 	ins	a0,v1,0xf,0x1
9d00399c:	a4440600 	sh	a0,1536(v0)
    IPC1bits.T1IP = 5;              // INT step 4: priority
9d0039a0:	3c02bf88 	lui	v0,0xbf88
9d0039a4:	8c4410a0 	lw	a0,4256(v0)
9d0039a8:	24050005 	li	a1,5
9d0039ac:	7ca42084 	ins	a0,a1,0x2,0x3
9d0039b0:	ac4410a0 	sw	a0,4256(v0)
    IPC1bits.T1IS = 0;              //             subpriority
9d0039b4:	8c4410a0 	lw	a0,4256(v0)
9d0039b8:	7c040804 	ins	a0,zero,0x0,0x2
9d0039bc:	ac4410a0 	sw	a0,4256(v0)
    IFS0bits.T1IF = 0;              // INT step 5: clear interrupt flag
9d0039c0:	3c02bf88 	lui	v0,0xbf88
9d0039c4:	8c441030 	lw	a0,4144(v0)
9d0039c8:	7c042104 	ins	a0,zero,0x4,0x1
9d0039cc:	ac441030 	sw	a0,4144(v0)
    IEC0bits.T1IE = 1;              // INT step 6: enable interrupt
9d0039d0:	3c02bf88 	lui	v0,0xbf88
9d0039d4:	8c441060 	lw	a0,4192(v0)
9d0039d8:	7c642104 	ins	a0,v1,0x4,0x1
9d0039dc:	ac441060 	sw	a0,4192(v0)
    AD1PCFGbits.PCFG0 = 0;                 // AN0 is an adc pin
9d0039e0:	3c02bf81 	lui	v0,0xbf81
9d0039e4:	94449060 	lhu	a0,-28576(v0)
9d0039e8:	7c040004 	ins	a0,zero,0x0,0x1
9d0039ec:	a4449060 	sh	a0,-28576(v0)
    
    AD1CON3bits.ADCS = 2;                   // ADC clock period is Tad = 2*(ADCS+1)*Tpb =
9d0039f0:	24040002 	li	a0,2
9d0039f4:	3c02bf81 	lui	v0,0xbf81
9d0039f8:	a0449020 	sb	a0,-28640(v0)
    //                           2*3*12.5ns = 75ns
    AD1CON1bits.ADON = 1;      
9d0039fc:	3c02bf81 	lui	v0,0xbf81
9d003a00:	94449000 	lhu	a0,-28672(v0)
9d003a04:	7c647bc4 	ins	a0,v1,0xf,0x1
9d003a08:	a4449000 	sh	a0,-28672(v0)
    __builtin_enable_interrupts();  // INT step 7: enable interrupts at CPU
9d003a0c:	41626020 	ei	v0
9d003a10:	0b400e84 	j	9d003a10 <.LVL12+0xc8>
9d003a14:	00000000 	nop

Disassembly of section .text.fpsubadd:

9d003a18 <__subsf3>:
9d003a18:	3c018000 00a12826                       ...<&(..

9d003a20 <__addsf3>:
9d003a20:	00044dc2 312900ff 00055dc2 316b00ff     .M....)1.]....k1
9d003a30:	3c078000 00044200 01074025 00055200     ...<.B..%@...R..
9d003a40:	01475025 252dffff 2da100fe 10200061     %PG...-%...-a. .
9d003a50:	00000000                                ....

9d003a54 <Blab1>:
9d003a54:	256dffff 	addiu	t5,t3,-1
9d003a58:	2da100fe 	sltiu	at,t5,254
9d003a5c:	10200077 	beqz	at,9d003c3c <BspecB>
9d003a60:	00000000 	nop

9d003a64 <Blab2>:
9d003a64:	012b6023 	subu	t4,t1,t3
9d003a68:	0580000d 	bltz	t4,9d003aa0 <i1>
9d003a6c:	00000000 	nop
9d003a70:	29810020 	slti	at,t4,32
9d003a74:	14200003 	bnez	at,9d003a84 <i2>
9d003a78:	00000000 	nop
9d003a7c:	10000015 	b	9d003ad4 <e1>
9d003a80:	240a0002 	li	t2,2

9d003a84 <i2>:
9d003a84:	000a3025 	or	a2,zero,t2
9d003a88:	018a5006 	srlv	t2,t2,t4
9d003a8c:	018a6804 	sllv	t5,t2,t4
9d003a90:	11a60010 	beq	t5,a2,9d003ad4 <e1>
9d003a94:	00000000 	nop
9d003a98:	1000000e 	b	9d003ad4 <e1>
9d003a9c:	354a0002 	ori	t2,t2,0x2

9d003aa0 <i1>:
9d003aa0:	000b4825 	or	t1,zero,t3
9d003aa4:	000c6023 	negu	t4,t4
9d003aa8:	29810020 	slti	at,t4,32
9d003aac:	14200003 	bnez	at,9d003abc <i4>
9d003ab0:	00000000 	nop
9d003ab4:	10000007 	b	9d003ad4 <e1>
9d003ab8:	24080002 	li	t0,2

9d003abc <i4>:
9d003abc:	00083025 	or	a2,zero,t0
9d003ac0:	01884006 	srlv	t0,t0,t4
9d003ac4:	01886804 	sllv	t5,t0,t4
9d003ac8:	11a60002 	beq	t5,a2,9d003ad4 <e1>
9d003acc:	00000000 	nop
9d003ad0:	35080002 	ori	t0,t0,0x2

9d003ad4 <e1>:
9d003ad4:	00876024 	and	t4,a0,a3
9d003ad8:	01856826 	xor	t5,t4,a1
9d003adc:	05a00010 	bltz	t5,9d003b20 <Bsub1>
9d003ae0:	00000000 	nop
9d003ae4:	010a4021 	addu	t0,t0,t2
9d003ae8:	010a682b 	sltu	t5,t0,t2
9d003aec:	11a00017 	beqz	t5,9d003b4c <Bres>
9d003af0:	00000000 	nop
9d003af4:	310d0001 	andi	t5,t0,0x1
9d003af8:	11a00002 	beqz	t5,9d003b04 <i7>
9d003afc:	00000000 	nop
9d003b00:	35080002 	ori	t0,t0,0x2

9d003b04 <i7>:
9d003b04:	00084042 	srl	t0,t0,0x1
9d003b08:	25290001 	addiu	t1,t1,1
9d003b0c:	240100ff 	li	at,255
9d003b10:	1521000e 	bne	t1,at,9d003b4c <Bres>
9d003b14:	00000000 	nop
9d003b18:	1000000c 	b	9d003b4c <Bres>
9d003b1c:	24080000 	li	t0,0

9d003b20 <Bsub1>:
9d003b20:	010a682b 	sltu	t5,t0,t2
9d003b24:	11a00004 	beqz	t5,9d003b38 <i9>
9d003b28:	010a4023 	subu	t0,t0,t2
9d003b2c:	00084023 	negu	t0,t0
9d003b30:	10000003 	b	9d003b40 <e9>
9d003b34:	01876026 	xor	t4,t4,a3

9d003b38 <i9>:
9d003b38:	11000050 	beqz	t0,9d003c7c <Bzer>
9d003b3c:	00000000 	nop

9d003b40 <e9>:
9d003b40:	71063020 	clz	a2,t0
9d003b44:	01264823 	subu	t1,t1,a2
9d003b48:	00c84004 	sllv	t0,t0,a2

9d003b4c <Bres>:
9d003b4c:	1920000e 	blez	t1,9d003b88 <Bund>
9d003b50:	00000000 	nop

9d003b54 <Blab12>:
9d003b54:	25080080 	addiu	t0,t0,128
9d003b58:	2d0d0080 	sltiu	t5,t0,128
9d003b5c:	012d4821 	addu	t1,t1,t5
9d003b60:	00086a02 	srl	t5,t0,0x8
9d003b64:	31ad0001 	andi	t5,t5,0x1
9d003b68:	010d4023 	subu	t0,t0,t5
9d003b6c:	00084040 	sll	t0,t0,0x1
9d003b70:	00084242 	srl	t0,t0,0x9
9d003b74:	00096dc0 	sll	t5,t1,0x17
9d003b78:	010d4025 	or	t0,t0,t5
9d003b7c:	010c1025 	or	v0,t0,t4

9d003b80 <B999>:
9d003b80:	03e00008 	jr	ra
9d003b84:	00000000 	nop

9d003b88 <Bund>:
9d003b88:	24060001 	li	a2,1
9d003b8c:	00c93023 	subu	a2,a2,t1
9d003b90:	2cc10020 	sltiu	at,a2,32
9d003b94:	10200039 	beqz	at,9d003c7c <Bzer>
9d003b98:	00000000 	nop
9d003b9c:	3c018000 	lui	at,0x8000
9d003ba0:	01014025 	or	t0,t0,at
9d003ba4:	240d0020 	li	t5,32
9d003ba8:	01a66823 	subu	t5,t5,a2
9d003bac:	01a84804 	sllv	t1,t0,t5
9d003bb0:	11200002 	beqz	t1,9d003bbc <i10>
9d003bb4:	00c84006 	srlv	t0,t0,a2
9d003bb8:	35080001 	ori	t0,t0,0x1

9d003bbc <i10>:
9d003bbc:	24090000 	li	t1,0
9d003bc0:	250d0080 	addiu	t5,t0,128
9d003bc4:	05a1ffe3 	bgez	t5,9d003b54 <Blab12>
9d003bc8:	00000000 	nop
9d003bcc:	1000ffe1 	b	9d003b54 <Blab12>
9d003bd0:	24090001 	li	t1,1

9d003bd4 <BspecA>:
9d003bd4:	1520000e 	bnez	t1,9d003c10 <i12>
9d003bd8:	00000000 	nop
9d003bdc:	01084021 	addu	t0,t0,t0
9d003be0:	11000005 	beqz	t0,9d003bf8 <i13>
9d003be4:	00000000 	nop
9d003be8:	710c6020 	clz	t4,t0
9d003bec:	012c4823 	subu	t1,t1,t4
9d003bf0:	1000ff98 	b	9d003a54 <Blab1>
9d003bf4:	01884004 	sllv	t0,t0,t4

9d003bf8 <i13>:
9d003bf8:	240100ff 	li	at,255
9d003bfc:	1161000f 	beq	t3,at,9d003c3c <BspecB>
9d003c00:	00000000 	nop
9d003c04:	3c018000 	lui	at,0x8000
9d003c08:	14a10018 	bne	a1,at,9d003c6c <BretB>
9d003c0c:	00000000 	nop

9d003c10 <i12>:
9d003c10:	01086821 	addu	t5,t0,t0
9d003c14:	15a0001b 	bnez	t5,9d003c84 <Bnan>
9d003c18:	00000000 	nop
9d003c1c:	240100ff 	li	at,255
9d003c20:	15610014 	bne	t3,at,9d003c74 <BretA>
9d003c24:	00000000 	nop
9d003c28:	00856826 	xor	t5,a0,a1
9d003c2c:	05a00015 	bltz	t5,9d003c84 <Bnan>
9d003c30:	00000000 	nop
9d003c34:	1000000d 	b	9d003c6c <BretB>
9d003c38:	00000000 	nop

9d003c3c <BspecB>:
9d003c3c:	15600008 	bnez	t3,9d003c60 <i15>
9d003c40:	00000000 	nop
9d003c44:	014a5021 	addu	t2,t2,t2
9d003c48:	1140000a 	beqz	t2,9d003c74 <BretA>
9d003c4c:	00000000 	nop
9d003c50:	714c6020 	clz	t4,t2
9d003c54:	016c5823 	subu	t3,t3,t4
9d003c58:	1000ff82 	b	9d003a64 <Blab2>
9d003c5c:	018a5004 	sllv	t2,t2,t4

9d003c60 <i15>:
9d003c60:	014a6821 	addu	t5,t2,t2
9d003c64:	15a00007 	bnez	t5,9d003c84 <Bnan>
9d003c68:	00000000 	nop

9d003c6c <BretB>:
9d003c6c:	1000ffc4 	b	9d003b80 <B999>
9d003c70:	00051025 	or	v0,zero,a1

9d003c74 <BretA>:
9d003c74:	1000ffc2 	b	9d003b80 <B999>
9d003c78:	00041025 	or	v0,zero,a0

9d003c7c <Bzer>:
9d003c7c:	1000ffc0 	b	9d003b80 <B999>
9d003c80:	24020000 	li	v0,0

9d003c84 <Bnan>:
9d003c84:	1000ffbe 	b	9d003b80 <B999>
9d003c88:	3c02ffc0 	lui	v0,0xffc0
9d003c8c:	00000000 	nop

Disassembly of section .text.fp32div:

9d003c90 <__divsf3>:
9d003c90:	3c0b8000 000445c2 310800ff 000555c2     ...<.E.....1.U..
9d003ca0:	314a00ff 00043a00 00eb3825 00054a00     ..J1.:..%8...J..
9d003cb0:	012b4825 00857026 016e5824 250effff     %H+.&p..$Xn....%
9d003cc0:	2dc100fe 1020003f 00000000              ...-?. .....

9d003ccc <Dlab1>:
9d003ccc:	254effff 	addiu	t6,t2,-1
9d003cd0:	2dc100fe 	sltiu	at,t6,254
9d003cd4:	10200053 	beqz	at,9d003e24 <DspecB>
9d003cd8:	00000000 	nop

9d003cdc <Dlab2>:
9d003cdc:	00e9082b 	sltu	at,a3,t1
9d003ce0:	14200003 	bnez	at,9d003cf0 <i27>
9d003ce4:	00000000 	nop
9d003ce8:	00073842 	srl	a3,a3,0x1
9d003cec:	25080001 	addiu	t0,t0,1

9d003cf0 <i27>:
9d003cf0:	00096382 	srl	t4,t1,0xe
9d003cf4:	018001f4 	teq	t4,zero,0x7
9d003cf8:	00ec001b 	divu	zero,a3,t4
9d003cfc:	00002012 	mflo	a0
9d003d00:	00003010 	mfhi	a2
9d003d04:	312d3fff 	andi	t5,t1,0x3fff
9d003d08:	01a40019 	multu	t5,a0
9d003d0c:	00002812 	mflo	a1
9d003d10:	00063380 	sll	a2,a2,0xe
9d003d14:	00c5702b 	sltu	t6,a2,a1
9d003d18:	11c00004 	beqz	t6,9d003d2c <i28>
9d003d1c:	00c53023 	subu	a2,a2,a1
9d003d20:	2484ffff 	addiu	a0,a0,-1
9d003d24:	00c93021 	addu	a2,a2,t1
9d003d28:	00c9702b 	sltu	t6,a2,t1

9d003d2c <i28>:
9d003d2c:	018001f4 	teq	t4,zero,0x7
9d003d30:	00cc001b 	divu	zero,a2,t4
9d003d34:	00003812 	mflo	a3
9d003d38:	00003010 	mfhi	a2
9d003d3c:	01a70019 	multu	t5,a3
9d003d40:	00002812 	mflo	a1
9d003d44:	00063380 	sll	a2,a2,0xe
9d003d48:	00c5702b 	sltu	t6,a2,a1
9d003d4c:	11c00004 	beqz	t6,9d003d60 <i29>
9d003d50:	00c53023 	subu	a2,a2,a1
9d003d54:	24e7ffff 	addiu	a3,a3,-1
9d003d58:	00c93021 	addu	a2,a2,t1
9d003d5c:	00c9702b 	sltu	t6,a2,t1

9d003d60 <i29>:
9d003d60:	00047380 	sll	t6,a0,0xe
9d003d64:	00ee3821 	addu	a3,a3,t6
9d003d68:	10c00002 	beqz	a2,9d003d74 <i30>
9d003d6c:	00073900 	sll	a3,a3,0x4
9d003d70:	34e70001 	ori	a3,a3,0x1

9d003d74 <i30>:
9d003d74:	240e007e 	li	t6,126
9d003d78:	01ca7023 	subu	t6,t6,t2
9d003d7c:	010e4021 	addu	t0,t0,t6
9d003d80:	250effff 	addiu	t6,t0,-1
9d003d84:	2dc100fe 	sltiu	at,t6,254
9d003d88:	10200034 	beqz	at,9d003e5c <Doveund>
9d003d8c:	00000000 	nop

9d003d90 <Dlab8>:
9d003d90:	24e70080 	addiu	a3,a3,128
9d003d94:	2cee0080 	sltiu	t6,a3,128
9d003d98:	010e4021 	addu	t0,t0,t6
9d003d9c:	00077202 	srl	t6,a3,0x8
9d003da0:	31ce0001 	andi	t6,t6,0x1
9d003da4:	00ee3823 	subu	a3,a3,t6
9d003da8:	00073840 	sll	a3,a3,0x1
9d003dac:	00073a42 	srl	a3,a3,0x9
9d003db0:	000875c0 	sll	t6,t0,0x17
9d003db4:	00ee3825 	or	a3,a3,t6
9d003db8:	00eb1025 	or	v0,a3,t3

9d003dbc <D999>:
9d003dbc:	03e00008 	jr	ra
9d003dc0:	00000000 	nop

9d003dc4 <DspecA>:
9d003dc4:	15000008 	bnez	t0,9d003de8 <i31>
9d003dc8:	00000000 	nop
9d003dcc:	00e73821 	addu	a3,a3,a3
9d003dd0:	10e00005 	beqz	a3,9d003de8 <i31>
9d003dd4:	00000000 	nop
9d003dd8:	70ec6020 	clz	t4,a3
9d003ddc:	010c4023 	subu	t0,t0,t4
9d003de0:	1000ffba 	b	9d003ccc <Dlab1>
9d003de4:	01873804 	sllv	a3,a3,t4

9d003de8 <i31>:
9d003de8:	15480004 	bne	t2,t0,9d003dfc <i33>
9d003dec:	00000000 	nop
9d003df0:	01297021 	addu	t6,t1,t1
9d003df4:	11c0002f 	beqz	t6,9d003eb4 <Dnan>
9d003df8:	00000000 	nop

9d003dfc <i33>:
9d003dfc:	240100ff 	li	at,255
9d003e00:	11410008 	beq	t2,at,9d003e24 <DspecB>
9d003e04:	00000000 	nop
9d003e08:	11000012 	beqz	t0,9d003e54 <Dzer>
9d003e0c:	00000000 	nop
9d003e10:	00e77021 	addu	t6,a3,a3
9d003e14:	15c00027 	bnez	t6,9d003eb4 <Dnan>
9d003e18:	00000000 	nop
9d003e1c:	10000022 	b	9d003ea8 <Dinf>
9d003e20:	00000000 	nop

9d003e24 <DspecB>:
9d003e24:	15400008 	bnez	t2,9d003e48 <i34>
9d003e28:	00000000 	nop
9d003e2c:	01294821 	addu	t1,t1,t1
9d003e30:	1120001d 	beqz	t1,9d003ea8 <Dinf>
9d003e34:	00000000 	nop
9d003e38:	712c6020 	clz	t4,t1
9d003e3c:	014c5023 	subu	t2,t2,t4
9d003e40:	1000ffa6 	b	9d003cdc <Dlab2>
9d003e44:	01894804 	sllv	t1,t1,t4

9d003e48 <i34>:
9d003e48:	01297021 	addu	t6,t1,t1
9d003e4c:	15c00019 	bnez	t6,9d003eb4 <Dnan>
9d003e50:	00000000 	nop

9d003e54 <Dzer>:
9d003e54:	1000ffd9 	b	9d003dbc <D999>
9d003e58:	000b1025 	or	v0,zero,t3

9d003e5c <Doveund>:
9d003e5c:	1d000012 	bgtz	t0,9d003ea8 <Dinf>
9d003e60:	00000000 	nop
9d003e64:	240c0001 	li	t4,1
9d003e68:	01886023 	subu	t4,t4,t0
9d003e6c:	2d810020 	sltiu	at,t4,32
9d003e70:	1020fff8 	beqz	at,9d003e54 <Dzer>
9d003e74:	00000000 	nop
9d003e78:	240e0020 	li	t6,32
9d003e7c:	01cc7023 	subu	t6,t6,t4
9d003e80:	01c74004 	sllv	t0,a3,t6
9d003e84:	11000002 	beqz	t0,9d003e90 <i37>
9d003e88:	01873806 	srlv	a3,a3,t4
9d003e8c:	34e70002 	ori	a3,a3,0x2

9d003e90 <i37>:
9d003e90:	24080000 	li	t0,0
9d003e94:	24ee0080 	addiu	t6,a3,128
9d003e98:	05c1ffbd 	bgez	t6,9d003d90 <Dlab8>
9d003e9c:	00000000 	nop
9d003ea0:	1000ffbb 	b	9d003d90 <Dlab8>
9d003ea4:	24080001 	li	t0,1

9d003ea8 <Dinf>:
9d003ea8:	3c017f80 	lui	at,0x7f80
9d003eac:	1000ffc3 	b	9d003dbc <D999>
9d003eb0:	01611025 	or	v0,t3,at

9d003eb4 <Dnan>:
9d003eb4:	1000ffc1 	b	9d003dbc <D999>
9d003eb8:	3c02ffc0 	lui	v0,0xffc0
9d003ebc:	00000000 	nop

Disassembly of section .text:

9d003ec0 <NU32_Startup>:

// Perform startup routines:
//  Make NU32_LED1 and NU32_LED2 pins outputs (NU32_USER is by default an input)
//  Initialize the serial port - UART3 (no interrupt) 
//  Enable interrupts
void NU32_Startup() {
9d003ec0:	27bdfff8 	addiu	sp,sp,-8
9d003ec4:	afbf0004 	sw	ra,4(sp)
  // disable interrupts
  __builtin_disable_interrupts();
9d003ec8:	41626000 	di	v0
9d003ecc:	000000c0 	ehb
  // see Chapter 2 "CPU for Devices with M4K Core" of the PIC32 reference manual
  // most of the other bits have prescribed values
  // microchip does not provide a _CP0_SET_CONFIG macro, so we directly use
  // the compiler built-in command _mtc0
  // to disable cache, use 0xa4210582 
  __builtin_mtc0(_CP0_CONFIG, _CP0_CONFIG_SELECT, 0xa4210583); 
9d003ed0:	3c02a421 	lui	v0,0xa421
9d003ed4:	24420583 	addiu	v0,v0,1411
9d003ed8:	40828000 	mtc0	v0,c0_config
9d003edc:	000000c0 	ehb
  
  // set the prefectch cache wait state to 2, as per the
  // electrical characteristics data sheet
  CHECONbits.PFMWS = 0x2;   
9d003ee0:	3c02bf88 	lui	v0,0xbf88
9d003ee4:	8c434000 	lw	v1,16384(v0)
9d003ee8:	24050002 	li	a1,2
9d003eec:	7ca31004 	ins	v1,a1,0x0,0x3
9d003ef0:	ac434000 	sw	v1,16384(v0)

  //enable prefetch for cacheable and noncacheable memory
  CHECONbits.PREFEN = 0x3; 
9d003ef4:	8c434000 	lw	v1,16384(v0)
9d003ef8:	24040003 	li	a0,3
9d003efc:	7c832904 	ins	v1,a0,0x4,0x2
9d003f00:	ac434000 	sw	v1,16384(v0)

  // 0 data RAM access wait states
  BMXCONbits.BMXWSDRM = 0x0;
9d003f04:	3c02bf88 	lui	v0,0xbf88
9d003f08:	8c432000 	lw	v1,8192(v0)
9d003f0c:	7c033184 	ins	v1,zero,0x6,0x1
9d003f10:	ac432000 	sw	v1,8192(v0)
  
  // enable multi vector interrupts
  INTCONbits.MVEC = 0x1;
9d003f14:	3c02bf88 	lui	v0,0xbf88
9d003f18:	8c461000 	lw	a2,4096(v0)
9d003f1c:	24030001 	li	v1,1
9d003f20:	7c666304 	ins	a2,v1,0xc,0x1
9d003f24:	ac461000 	sw	a2,4096(v0)

  // disable JTAG to get B10, B11, B12 and B13 back
  DDPCONbits.JTAGEN = 0;
9d003f28:	3c02bf81 	lui	v0,0xbf81
9d003f2c:	9046f200 	lbu	a2,-3584(v0)
9d003f30:	7c0618c4 	ins	a2,zero,0x3,0x1
9d003f34:	a046f200 	sb	a2,-3584(v0)

  TRISFCLR = 0x0003;  // Make F0 and F1 outputs (LED1 and LED2)
9d003f38:	3c02bf88 	lui	v0,0xbf88
9d003f3c:	ac446144 	sw	a0,24900(v0)
  NU32_LED1 = 1;      // LED1 is off
9d003f40:	3c02bf88 	lui	v0,0xbf88
9d003f44:	90446160 	lbu	a0,24928(v0)
9d003f48:	7c640004 	ins	a0,v1,0x0,0x1
9d003f4c:	a0446160 	sb	a0,24928(v0)
  NU32_LED2 = 0;      // LED2 is on
9d003f50:	90446160 	lbu	a0,24928(v0)
9d003f54:	7c040844 	ins	a0,zero,0x1,0x1
9d003f58:	a0446160 	sb	a0,24928(v0)

  // turn on UART3 without an interrupt
  U3MODEbits.BRGH = 0; // set baud to NU32_DESIRED_BAUD
9d003f5c:	3c02bf80 	lui	v0,0xbf80
9d003f60:	94446400 	lhu	a0,25600(v0)
9d003f64:	7c0418c4 	ins	a0,zero,0x3,0x1
9d003f68:	a4446400 	sh	a0,25600(v0)
  U3BRG = ((NU32_SYS_FREQ / NU32_DESIRED_BAUD) / 16) - 1;
9d003f6c:	24060014 	li	a2,20
9d003f70:	3c04bf80 	lui	a0,0xbf80
9d003f74:	ac866440 	sw	a2,25664(a0)

  // 8 bit, no parity bit, and 1 stop bit (8N1 setup)
  U3MODEbits.PDSEL = 0;
9d003f78:	94446400 	lhu	a0,25600(v0)
9d003f7c:	7c041044 	ins	a0,zero,0x1,0x2
9d003f80:	a4446400 	sh	a0,25600(v0)
  U3MODEbits.STSEL = 0;
9d003f84:	94446400 	lhu	a0,25600(v0)
9d003f88:	7c040004 	ins	a0,zero,0x0,0x1
9d003f8c:	a4446400 	sh	a0,25600(v0)

  // configure TX & RX pins as output & input pins
  U3STAbits.UTXEN = 1;
9d003f90:	3c04bf80 	lui	a0,0xbf80
9d003f94:	8c866410 	lw	a2,25616(a0)
9d003f98:	7c665284 	ins	a2,v1,0xa,0x1
9d003f9c:	ac866410 	sw	a2,25616(a0)
  U3STAbits.URXEN = 1;
9d003fa0:	8c866410 	lw	a2,25616(a0)
9d003fa4:	7c666304 	ins	a2,v1,0xc,0x1
9d003fa8:	ac866410 	sw	a2,25616(a0)
  // configure hardware flow control using RTS and CTS
  U3MODEbits.UEN = 2;
9d003fac:	94446400 	lhu	a0,25600(v0)
9d003fb0:	7ca44a04 	ins	a0,a1,0x8,0x2
9d003fb4:	a4446400 	sh	a0,25600(v0)

  // enable the uart
  U3MODEbits.ON = 1;
9d003fb8:	94446400 	lhu	a0,25600(v0)
9d003fbc:	7c647bc4 	ins	a0,v1,0xf,0x1
9d003fc0:	a4446400 	sh	a0,25600(v0)

  __builtin_enable_interrupts();
9d003fc4:	41626020 	ei	v0
}
9d003fc8:	8fbf0004 	lw	ra,4(sp)
9d003fcc:	03e00008 	jr	ra
9d003fd0:	27bd0008 	addiu	sp,sp,8

9d003fd4 <NU32_ReadUART3>:
// Read from UART3
// block other functions until you get a '\r' or '\n'
// send the pointer to your char array and the number of elements in the array
void NU32_ReadUART3(char * message, int maxLength) {
  char data = 0;
  int complete = 0, num_bytes = 0;
9d003fd4:	00003021 	move	a2,zero
  // loop until you get a '\r' or '\n'
  while (!complete) {
    if (U3STAbits.URXDA) { // if data is available
9d003fd8:	3c03bf80 	lui	v1,0xbf80
      data = U3RXREG;      // read the data
9d003fdc:	3c08bf80 	lui	t0,0xbf80
      if ((data == '\n') || (data == '\r')) {
9d003fe0:	2407000a 	li	a3,10
9d003fe4:	0b401009 	j	9d004024 <NU32_ReadUART3+0x50>
9d003fe8:	2409000d 	li	t1,13
void NU32_ReadUART3(char * message, int maxLength) {
  char data = 0;
  int complete = 0, num_bytes = 0;
  // loop until you get a '\r' or '\n'
  while (!complete) {
    if (U3STAbits.URXDA) { // if data is available
9d003fec:	8c626410 	lw	v0,25616(v1)
9d003ff0:	30420001 	andi	v0,v0,0x1
9d003ff4:	1040fffd 	beqz	v0,9d003fec <NU32_ReadUART3+0x18>
9d003ff8:	00000000 	nop
      data = U3RXREG;      // read the data
9d003ffc:	8d026430 	lw	v0,25648(t0)
9d004000:	7c021420 	seb	v0,v0
      if ((data == '\n') || (data == '\r')) {
9d004004:	5047000e 	beql	v0,a3,9d004040 <NU32_ReadUART3+0x6c>
9d004008:	00862021 	addu	a0,a0,a2
9d00400c:	1049000b 	beq	v0,t1,9d00403c <NU32_ReadUART3+0x68>
9d004010:	00865021 	addu	t2,a0,a2
        complete = 1;
      } else {
        message[num_bytes] = data;
9d004014:	a1420000 	sb	v0,0(t2)
        ++num_bytes;
9d004018:	24c60001 	addiu	a2,a2,1
        // roll over if the array is too small
        if (num_bytes >= maxLength) {
9d00401c:	00c5102a 	slt	v0,a2,a1
          num_bytes = 0;
9d004020:	0002300a 	movz	a2,zero,v0
void NU32_ReadUART3(char * message, int maxLength) {
  char data = 0;
  int complete = 0, num_bytes = 0;
  // loop until you get a '\r' or '\n'
  while (!complete) {
    if (U3STAbits.URXDA) { // if data is available
9d004024:	8c626410 	lw	v0,25616(v1)
9d004028:	30420001 	andi	v0,v0,0x1
9d00402c:	1040ffef 	beqz	v0,9d003fec <NU32_ReadUART3+0x18>
9d004030:	00000000 	nop
9d004034:	0b400fff 	j	9d003ffc <NU32_ReadUART3+0x28>
9d004038:	00000000 	nop
        }
      }
    }
  }
  // end the string
  message[num_bytes] = '\0';
9d00403c:	00862021 	addu	a0,a0,a2
9d004040:	03e00008 	jr	ra
9d004044:	a0800000 	sb	zero,0(a0)

9d004048 <NU32_WriteUART3>:
}

// Write a character array using UART3
void NU32_WriteUART3(const char * string) {
  while (*string != '\0') {
9d004048:	80850000 	lb	a1,0(a0)
9d00404c:	10a0000b 	beqz	a1,9d00407c <NU32_WriteUART3+0x34>
9d004050:	3c03bf80 	lui	v1,0xbf80
    while (U3STAbits.UTXBF) {
      ; // wait until tx buffer isn't full
    }
    U3TXREG = *string;
9d004054:	3c06bf80 	lui	a2,0xbf80
}

// Write a character array using UART3
void NU32_WriteUART3(const char * string) {
  while (*string != '\0') {
    while (U3STAbits.UTXBF) {
9d004058:	8c626410 	lw	v0,25616(v1)
9d00405c:	30420200 	andi	v0,v0,0x200
9d004060:	1440fffd 	bnez	v0,9d004058 <NU32_WriteUART3+0x10>
9d004064:	00000000 	nop
      ; // wait until tx buffer isn't full
    }
    U3TXREG = *string;
9d004068:	acc56420 	sw	a1,25632(a2)
    ++string;
9d00406c:	24840001 	addiu	a0,a0,1
  message[num_bytes] = '\0';
}

// Write a character array using UART3
void NU32_WriteUART3(const char * string) {
  while (*string != '\0') {
9d004070:	80850000 	lb	a1,0(a0)
9d004074:	14a0fff8 	bnez	a1,9d004058 <NU32_WriteUART3+0x10>
9d004078:	00000000 	nop
9d00407c:	03e00008 	jr	ra
9d004080:	00000000 	nop

Disassembly of section .text.fp32mul:

9d004084 <__mulsf3>:
9d004084:	00043dc2 30e700ff 00054dc2 312900ff     .=.....0.M....)1
9d004094:	3c0a8000 00043200 00ca3025 00054200     ...<.2..%0...B..
9d0040a4:	010a4025 00856026 014c5024 24ecffff     %@..&`..$PL....$
9d0040b4:	2d8100fe 10200021 00000000              ...-!. .....

9d0040c0 <Clab1>:
9d0040c0:	252cffff 	addiu	t4,t1,-1
9d0040c4:	2d8100fe 	sltiu	at,t4,254
9d0040c8:	10200036 	beqz	at,9d0041a4 <CspecB>
9d0040cc:	00000000 	nop

9d0040d0 <Clab2>:
9d0040d0:	00c80019 	multu	a2,t0
9d0040d4:	00005812 	mflo	t3
9d0040d8:	11600002 	beqz	t3,9d0040e4 <i17>
9d0040dc:	00003010 	mfhi	a2
9d0040e0:	34c60001 	ori	a2,a2,0x1

9d0040e4 <i17>:
9d0040e4:	04c00003 	bltz	a2,9d0040f4 <i18>
9d0040e8:	00000000 	nop
9d0040ec:	00063040 	sll	a2,a2,0x1
9d0040f0:	24e7ffff 	addiu	a3,a3,-1

9d0040f4 <i18>:
9d0040f4:	252cff82 	addiu	t4,t1,-126
9d0040f8:	00ec3821 	addu	a3,a3,t4
9d0040fc:	24ecffff 	addiu	t4,a3,-1
9d004100:	2d8100fe 	sltiu	at,t4,254
9d004104:	1020003a 	beqz	at,9d0041f0 <Coveund>
9d004108:	00000000 	nop

9d00410c <Clab8>:
9d00410c:	24c60080 	addiu	a2,a2,128
9d004110:	2ccc0080 	sltiu	t4,a2,128
9d004114:	00ec3821 	addu	a3,a3,t4
9d004118:	00066202 	srl	t4,a2,0x8
9d00411c:	318c0001 	andi	t4,t4,0x1
9d004120:	00cc3023 	subu	a2,a2,t4
9d004124:	00063040 	sll	a2,a2,0x1
9d004128:	00063242 	srl	a2,a2,0x9
9d00412c:	000765c0 	sll	t4,a3,0x17
9d004130:	00cc3025 	or	a2,a2,t4
9d004134:	00ca1025 	or	v0,a2,t2

9d004138 <C999>:
9d004138:	03e00008 	jr	ra
9d00413c:	00000000 	nop

9d004140 <CspecA>:
9d004140:	14e0000d 	bnez	a3,9d004178 <i19>
9d004144:	00000000 	nop
9d004148:	00c63021 	addu	a2,a2,a2
9d00414c:	10c00005 	beqz	a2,9d004164 <i20>
9d004150:	00000000 	nop
9d004154:	70cb5820 	clz	t3,a2
9d004158:	00eb3823 	subu	a3,a3,t3
9d00415c:	1000ffd8 	b	9d0040c0 <Clab1>
9d004160:	01663004 	sllv	a2,a2,t3

9d004164 <i20>:
9d004164:	240100ff 	li	at,255
9d004168:	1121001f 	beq	t1,at,9d0041e8 <Cnan>
9d00416c:	00000000 	nop
9d004170:	10000015 	b	9d0041c8 <Czer>
9d004174:	00000000 	nop

9d004178 <i19>:
9d004178:	00c66021 	addu	t4,a2,a2
9d00417c:	1580001a 	bnez	t4,9d0041e8 <Cnan>
9d004180:	00000000 	nop
9d004184:	15200004 	bnez	t1,9d004198 <i21>
9d004188:	00000000 	nop
9d00418c:	01086021 	addu	t4,t0,t0
9d004190:	11800015 	beqz	t4,9d0041e8 <Cnan>
9d004194:	00000000 	nop

9d004198 <i21>:
9d004198:	240100ff 	li	at,255
9d00419c:	1521000f 	bne	t1,at,9d0041dc <Cinf>
9d0041a0:	00000000 	nop

9d0041a4 <CspecB>:
9d0041a4:	1520000a 	bnez	t1,9d0041d0 <i22>
9d0041a8:	00000000 	nop
9d0041ac:	01084021 	addu	t0,t0,t0
9d0041b0:	11000005 	beqz	t0,9d0041c8 <Czer>
9d0041b4:	00000000 	nop
9d0041b8:	710b5820 	clz	t3,t0
9d0041bc:	012b4823 	subu	t1,t1,t3
9d0041c0:	1000ffc3 	b	9d0040d0 <Clab2>
9d0041c4:	01684004 	sllv	t0,t0,t3

9d0041c8 <Czer>:
9d0041c8:	1000ffdb 	b	9d004138 <C999>
9d0041cc:	000a1025 	or	v0,zero,t2

9d0041d0 <i22>:
9d0041d0:	01086021 	addu	t4,t0,t0
9d0041d4:	15800004 	bnez	t4,9d0041e8 <Cnan>
9d0041d8:	00000000 	nop

9d0041dc <Cinf>:
9d0041dc:	3c017f80 	lui	at,0x7f80
9d0041e0:	1000ffd5 	b	9d004138 <C999>
9d0041e4:	01411025 	or	v0,t2,at

9d0041e8 <Cnan>:
9d0041e8:	1000ffd3 	b	9d004138 <C999>
9d0041ec:	3c02ffc0 	lui	v0,0xffc0

9d0041f0 <Coveund>:
9d0041f0:	1ce0fffa 	bgtz	a3,9d0041dc <Cinf>
9d0041f4:	00000000 	nop
9d0041f8:	240b0001 	li	t3,1
9d0041fc:	01675823 	subu	t3,t3,a3
9d004200:	2d610020 	sltiu	at,t3,32
9d004204:	1020fff0 	beqz	at,9d0041c8 <Czer>
9d004208:	00000000 	nop
9d00420c:	240c0020 	li	t4,32
9d004210:	018b6023 	subu	t4,t4,t3
9d004214:	01863804 	sllv	a3,a2,t4
9d004218:	10e00002 	beqz	a3,9d004224 <i25>
9d00421c:	01663006 	srlv	a2,a2,t3
9d004220:	34c60002 	ori	a2,a2,0x2

9d004224 <i25>:
9d004224:	24070000 	li	a3,0
9d004228:	24cc0080 	addiu	t4,a2,128
9d00422c:	0581ffb7 	bgez	t4,9d00410c <Clab8>
9d004230:	00000000 	nop
9d004234:	1000ffb5 	b	9d00410c <Clab8>
9d004238:	24070001 	li	a3,1
9d00423c:	00000000 	nop

Disassembly of section .dinit:

9d004240 <.dinit>:
9d004240:	a0000170 	sb	zero,368(zero)
9d004244:	00000064 	0x64
9d004248:	00000000 	nop
9d00424c:	a0000008 	sb	zero,8(zero)
9d004250:	00000008 	jr	zero
9d004254:	00000000 	nop
9d004258:	a0000014 	sb	zero,20(zero)
9d00425c:	000000d4 	0xd4
9d004260:	00000001 	movf	zero,zero,$fcc0
9d004264:	a0000078 	sb	zero,120(zero)
9d004268:	a0000094 	sb	zero,148(zero)
9d00426c:	a00000b0 	sb	zero,176(zero)
9d004270:	a0000074 	sb	zero,116(zero)
9d004274:	a00000e8 	sb	zero,232(zero)
9d004278:	00000001 	movf	zero,zero,$fcc0
	...
9d0042c8:	ffffffff 	sdc3	$31,-1(ra)
9d0042cc:	ffffffff 	sdc3	$31,-1(ra)
9d0042d0:	00000000 	nop
9d0042d4:	00000040 	ssnop
9d0042d8:	00001009 	jalr	v0,zero
9d0042dc:	00000000 	nop
9d0042e0:	9d005350 	0x9d005350
9d0042e4:	ffffffff 	sdc3	$31,-1(ra)
	...
9d0042f4:	00011002 	srl	v0,at,0x0
9d0042f8:	00000000 	nop
9d0042fc:	9d005350 	0x9d005350
9d004300:	ffffffff 	sdc3	$31,-1(ra)
	...
9d004310:	00020002 	srl	zero,v0,0x0
9d004314:	00000000 	nop
9d004318:	9d005350 	0x9d005350
9d00431c:	fffffffd 	sdc3	$31,-3(ra)
	...
9d004338:	a00000e8 	sb	zero,232(zero)
9d00433c:	00000088 	0x88
9d004340:	00000000 	nop
9d004344:	a0000000 	sb	zero,0(zero)
9d004348:	00000004 	sllv	zero,zero,zero
9d00434c:	00000001 	movf	zero,zero,$fcc0
9d004350:	a0000014 	sb	zero,20(zero)
9d004354:	a0000010 	sb	zero,16(zero)
9d004358:	00000004 	sllv	zero,zero,zero
9d00435c:	00000000 	nop
9d004360:	a0000004 	sb	zero,4(zero)
9d004364:	00000004 	sllv	zero,zero,zero
9d004368:	00000001 	movf	zero,zero,$fcc0
9d00436c:	00000002 	srl	zero,zero,0x0
9d004370:	00000000 	nop
9d004374:	22222222 	addi	v0,s1,8738
9d004378:	22222222 	addi	v0,s1,8738
9d00437c:	22222222 	addi	v0,s1,8738

Disassembly of section .text._outcnvrt:

9d004380 <_outcnvrt>:
9d004380:	27bdffd8 	addiu	sp,sp,-40
9d004384:	afbf0024 	sw	ra,36(sp)
9d004388:	afb40020 	sw	s4,32(sp)
9d00438c:	afb3001c 	sw	s3,28(sp)
9d004390:	afb20018 	sw	s2,24(sp)
9d004394:	afb10014 	sw	s1,20(sp)
9d004398:	afb00010 	sw	s0,16(sp)
9d00439c:	00809821 	move	s3,a0
9d0043a0:	00a0a021 	move	s4,a1
9d0043a4:	97a20038 	lhu	v0,56(sp)
9d0043a8:	30420008 	andi	v0,v0,0x8
9d0043ac:	00c08021 	move	s0,a2
9d0043b0:	10400014 	beqz	v0,9d004404 <_outcnvrt+0x84>
9d0043b4:	00e08821 	move	s1,a3
9d0043b8:	00a02021 	move	a0,a1
9d0043bc:	00c02821 	move	a1,a2
9d0043c0:	0f4013c2 	jal	9d004f08 <__sputn>
9d0043c4:	02603021 	move	a2,s3
9d0043c8:	2403ffff 	li	v1,-1
9d0043cc:	10430003 	beq	v0,v1,9d0043dc <_outcnvrt+0x5c>
9d0043d0:	0211902a 	slt	s2,s0,s1
9d0043d4:	1640001c 	bnez	s2,9d004448 <_outcnvrt+0xc8>
9d0043d8:	02602021 	move	a0,s3
9d0043dc:	02201021 	move	v0,s1
9d0043e0:	0212100a 	movz	v0,s0,s2
9d0043e4:	8fbf0024 	lw	ra,36(sp)
9d0043e8:	8fb40020 	lw	s4,32(sp)
9d0043ec:	8fb3001c 	lw	s3,28(sp)
9d0043f0:	8fb20018 	lw	s2,24(sp)
9d0043f4:	8fb10014 	lw	s1,20(sp)
9d0043f8:	8fb00010 	lw	s0,16(sp)
9d0043fc:	03e00008 	jr	ra
9d004400:	27bd0028 	addiu	sp,sp,40
9d004404:	00c7902a 	slt	s2,a2,a3
9d004408:	1640001d 	bnez	s2,9d004480 <_outcnvrt+0x100>
9d00440c:	00e62823 	subu	a1,a3,a2
9d004410:	02802021 	move	a0,s4
9d004414:	02002821 	move	a1,s0
9d004418:	0f4013c2 	jal	9d004f08 <__sputn>
9d00441c:	02603021 	move	a2,s3
9d004420:	02201021 	move	v0,s1
9d004424:	0212100a 	movz	v0,s0,s2
9d004428:	8fbf0024 	lw	ra,36(sp)
9d00442c:	8fb40020 	lw	s4,32(sp)
9d004430:	8fb3001c 	lw	s3,28(sp)
9d004434:	8fb20018 	lw	s2,24(sp)
9d004438:	8fb10014 	lw	s1,20(sp)
9d00443c:	8fb00010 	lw	s0,16(sp)
9d004440:	03e00008 	jr	ra
9d004444:	27bd0028 	addiu	sp,sp,40
9d004448:	02302823 	subu	a1,s1,s0
9d00444c:	3c069d00 	lui	a2,0x9d00
9d004450:	0f4012b3 	jal	9d004acc <repl>
9d004454:	24c64fac 	addiu	a2,a2,20396
9d004458:	02201021 	move	v0,s1
9d00445c:	0212100a 	movz	v0,s0,s2
9d004460:	8fbf0024 	lw	ra,36(sp)
9d004464:	8fb40020 	lw	s4,32(sp)
9d004468:	8fb3001c 	lw	s3,28(sp)
9d00446c:	8fb20018 	lw	s2,24(sp)
9d004470:	8fb10014 	lw	s1,20(sp)
9d004474:	8fb00010 	lw	s0,16(sp)
9d004478:	03e00008 	jr	ra
9d00447c:	27bd0028 	addiu	sp,sp,40
9d004480:	3c069d00 	lui	a2,0x9d00
9d004484:	0f4012b3 	jal	9d004acc <repl>
9d004488:	24c64fac 	addiu	a2,a2,20396
9d00448c:	2403ffff 	li	v1,-1
9d004490:	1443ffdf 	bne	v0,v1,9d004410 <_outcnvrt+0x90>
9d004494:	02201021 	move	v0,s1
9d004498:	0212100a 	movz	v0,s0,s2
9d00449c:	8fbf0024 	lw	ra,36(sp)
9d0044a0:	8fb40020 	lw	s4,32(sp)
9d0044a4:	8fb3001c 	lw	s3,28(sp)
9d0044a8:	8fb20018 	lw	s2,24(sp)
9d0044ac:	8fb10014 	lw	s1,20(sp)
9d0044b0:	8fb00010 	lw	s0,16(sp)
9d0044b4:	03e00008 	jr	ra
9d0044b8:	27bd0028 	addiu	sp,sp,40

Disassembly of section .text.dptofp:

9d0044bc <__truncdfsf2>:
9d0044bc:	00053ac0 00045d42 00eb3825 000432c0     .:..B]..%8...2..
9d0044cc:	3c018000 00e13825 3c018000 00a14824     ...<%8.....<$H..
9d0044dc:	00054040 00084542 2508fc80 250bffff     @@..BE.....%...%
9d0044ec:	2d6100fe 10200012 00000000              ..a-.. .....

9d0044f8 <Hlab1>:
9d0044f8:	10c00002 	beqz	a2,9d004504 <i45>
9d0044fc:	00000000 	nop
9d004500:	34e70001 	ori	a3,a3,0x1

9d004504 <i45>:
9d004504:	24e70080 	addiu	a3,a3,128
9d004508:	2ceb0080 	sltiu	t3,a3,128
9d00450c:	010b4021 	addu	t0,t0,t3
9d004510:	00075a02 	srl	t3,a3,0x8
9d004514:	316b0001 	andi	t3,t3,0x1
9d004518:	00eb3823 	subu	a3,a3,t3
9d00451c:	00073840 	sll	a3,a3,0x1
9d004520:	00073a42 	srl	a3,a3,0x9
9d004524:	00085dc0 	sll	t3,t0,0x17
9d004528:	00eb3825 	or	a3,a3,t3
9d00452c:	00e91025 	or	v0,a3,t1

9d004530 <H999>:
9d004530:	03e00008 	jr	ra
9d004534:	00000000 	nop
9d004538:	00000000 	nop

9d00453c <Hspec>:
9d00453c:	2401047f 	li	at,1151
9d004540:	15010007 	bne	t0,at,9d004560 <i46>
9d004544:	00000000 	nop
9d004548:	00075840 	sll	t3,a3,0x1
9d00454c:	01665825 	or	t3,t3,a2
9d004550:	11600003 	beqz	t3,9d004560 <i46>
9d004554:	00000000 	nop
9d004558:	1000fff5 	b	9d004530 <H999>
9d00455c:	3c02ffc0 	lui	v0,0xffc0

9d004560 <i46>:
9d004560:	290100ff 	slti	at,t0,255
9d004564:	14200004 	bnez	at,9d004578 <i48>
9d004568:	00000000 	nop
9d00456c:	3c017f80 	lui	at,0x7f80
9d004570:	1000ffef 	b	9d004530 <H999>
9d004574:	01211025 	or	v0,t1,at

9d004578 <i48>:
9d004578:	240a0001 	li	t2,1
9d00457c:	01485023 	subu	t2,t2,t0
9d004580:	2d410020 	sltiu	at,t2,32
9d004584:	14200003 	bnez	at,9d004594 <i49>
9d004588:	00000000 	nop
9d00458c:	1000ffe8 	b	9d004530 <H999>
9d004590:	00091025 	or	v0,zero,t1

9d004594 <i49>:
9d004594:	240c0020 	li	t4,32
9d004598:	018a6023 	subu	t4,t4,t2
9d00459c:	01875804 	sllv	t3,a3,t4
9d0045a0:	00cb3025 	or	a2,a2,t3
9d0045a4:	01473806 	srlv	a3,a3,t2
9d0045a8:	24080000 	li	t0,0
9d0045ac:	3c018000 	lui	at,0x8000
9d0045b0:	1000ffd1 	b	9d0044f8 <Hlab1>
9d0045b4:	00e13825 	or	a3,a3,at
9d0045b8:	00000000 	nop

Disassembly of section .text._flsbuf_simple:

9d0045bc <_flsbuf_simple>:
9d0045bc:	27bdffd8 	addiu	sp,sp,-40
9d0045c0:	afbf0024 	sw	ra,36(sp)
9d0045c4:	afb10020 	sw	s1,32(sp)
9d0045c8:	afb0001c 	sw	s0,28(sp)
9d0045cc:	00a08021 	move	s0,a1
9d0045d0:	8ca2000c 	lw	v0,12(a1)
9d0045d4:	1040002d 	beqz	v0,9d00468c <_flsbuf_simple+0xd0>
9d0045d8:	00808821 	move	s1,a0
9d0045dc:	8ca20000 	lw	v0,0(a1)
9d0045e0:	24420001 	addiu	v0,v0,1
9d0045e4:	2403ffff 	li	v1,-1
9d0045e8:	1043001e 	beq	v0,v1,9d004664 <_flsbuf_simple+0xa8>
9d0045ec:	aca20000 	sw	v0,0(a1)
9d0045f0:	0f401347 	jal	9d004d1c <_fflush_simple>
9d0045f4:	02002021 	move	a0,s0
9d0045f8:	8e040000 	lw	a0,0(s0)
9d0045fc:	8e020004 	lw	v0,4(s0)
9d004600:	2484ffff 	addiu	a0,a0,-1
9d004604:	24430001 	addiu	v1,v0,1
9d004608:	ae040000 	sw	a0,0(s0)
9d00460c:	ae030004 	sw	v1,4(s0)
9d004610:	a0510000 	sb	s1,0(v0)
9d004614:	2402000a 	li	v0,10
9d004618:	52220007 	beql	s1,v0,9d004638 <_flsbuf_simple+0x7c>
9d00461c:	96020010 	lhu	v0,16(s0)
9d004620:	02201021 	move	v0,s1
9d004624:	8fbf0024 	lw	ra,36(sp)
9d004628:	8fb10020 	lw	s1,32(sp)
9d00462c:	8fb0001c 	lw	s0,28(sp)
9d004630:	03e00008 	jr	ra
9d004634:	27bd0028 	addiu	sp,sp,40
9d004638:	30420008 	andi	v0,v0,0x8
9d00463c:	1040fff9 	beqz	v0,9d004624 <_flsbuf_simple+0x68>
9d004640:	02201021 	move	v0,s1
9d004644:	0f401347 	jal	9d004d1c <_fflush_simple>
9d004648:	02002021 	move	a0,s0
9d00464c:	02201021 	move	v0,s1
9d004650:	8fbf0024 	lw	ra,36(sp)
9d004654:	8fb10020 	lw	s1,32(sp)
9d004658:	8fb0001c 	lw	s0,28(sp)
9d00465c:	03e00008 	jr	ra
9d004660:	27bd0028 	addiu	sp,sp,40
9d004664:	8ca20008 	lw	v0,8(a1)
9d004668:	1440ffe1 	bnez	v0,9d0045f0 <_flsbuf_simple+0x34>
9d00466c:	00000000 	nop
9d004670:	94a20010 	lhu	v0,16(a1)
9d004674:	aca00004 	sw	zero,4(a1)
9d004678:	aca0000c 	sw	zero,12(a1)
9d00467c:	34420010 	ori	v0,v0,0x10
9d004680:	aca00000 	sw	zero,0(a1)
9d004684:	0b40117c 	j	9d0045f0 <_flsbuf_simple+0x34>
9d004688:	a4a20010 	sh	v0,16(a1)
9d00468c:	27a40010 	addiu	a0,sp,16
9d004690:	24050001 	li	a1,1
9d004694:	0f401436 	jal	9d0050d8 <.LFE0>
9d004698:	a3b10010 	sb	s1,16(sp)
9d00469c:	ae000000 	sw	zero,0(s0)
9d0046a0:	02201021 	move	v0,s1
9d0046a4:	8fbf0024 	lw	ra,36(sp)
9d0046a8:	8fb10020 	lw	s1,32(sp)
9d0046ac:	8fb0001c 	lw	s0,28(sp)
9d0046b0:	03e00008 	jr	ra
9d0046b4:	27bd0028 	addiu	sp,sp,40

Disassembly of section .text._mon_getc:

9d0046b8 <_mon_getc>:
9d0046b8:	27bdffe8 	addiu	sp,sp,-24

9d0046bc <.LCFI0>:
9d0046bc:	afbf0014 	sw	ra,20(sp)
9d0046c0:	3c02a000 	lui	v0,0xa000
9d0046c4:	8c420004 	lw	v0,4(v0)
9d0046c8:	1440000a 	bnez	v0,9d0046f4 <.LCFI0+0x38>
9d0046cc:	24030002 	li	v1,2
9d0046d0:	3c020000 	lui	v0,0x0
9d0046d4:	24420000 	addiu	v0,v0,0
9d0046d8:	10400029 	beqz	v0,9d004780 <.LCFI0+0xc4>
9d0046dc:	3c020000 	lui	v0,0x0
9d0046e0:	0c000000 	jal	90000000 <_bmxdudba_address+0x8ffe0000>
9d0046e4:	00000000 	nop
9d0046e8:	8fbf0014 	lw	ra,20(sp)
9d0046ec:	03e00008 	jr	ra
9d0046f0:	27bd0018 	addiu	sp,sp,24
9d0046f4:	1043001c 	beq	v0,v1,9d004768 <.LCFI0+0xac>
9d0046f8:	3c02bf80 	lui	v0,0xbf80
9d0046fc:	3c02bf80 	lui	v0,0xbf80
9d004700:	8c426000 	lw	v0,24576(v0)
9d004704:	3c05bf80 	lui	a1,0xbf80
9d004708:	24a56030 	addiu	a1,a1,24624
9d00470c:	3c04bf80 	lui	a0,0xbf80
9d004710:	24846010 	addiu	a0,a0,24592
9d004714:	30428000 	andi	v0,v0,0x8000
9d004718:	14400003 	bnez	v0,9d004728 <.LCFI0+0x6c>
9d00471c:	34038000 	li	v1,0x8000
9d004720:	3c02bf80 	lui	v0,0xbf80
9d004724:	ac436008 	sw	v1,24584(v0)
9d004728:	8c820000 	lw	v0,0(a0)
9d00472c:	30420001 	andi	v0,v0,0x1
9d004730:	14400009 	bnez	v0,9d004758 <.LCFI0+0x9c>
9d004734:	240200a0 	li	v0,160
9d004738:	0b4011d2 	j	9d004748 <.LCFI0+0x8c>
9d00473c:	00000000 	nop
9d004740:	10400005 	beqz	v0,9d004758 <.LCFI0+0x9c>
9d004744:	00000000 	nop
9d004748:	8c830000 	lw	v1,0(a0)
9d00474c:	30630001 	andi	v1,v1,0x1
9d004750:	1060fffb 	beqz	v1,9d004740 <.LCFI0+0x84>
9d004754:	2442ffff 	addiu	v0,v0,-1
9d004758:	8ca20000 	lw	v0,0(a1)
9d00475c:	8fbf0014 	lw	ra,20(sp)
9d004760:	03e00008 	jr	ra
9d004764:	27bd0018 	addiu	sp,sp,24
9d004768:	8c426800 	lw	v0,26624(v0)
9d00476c:	3c05bf80 	lui	a1,0xbf80
9d004770:	24a56830 	addiu	a1,a1,26672
9d004774:	3c04bf80 	lui	a0,0xbf80
9d004778:	0b4011c5 	j	9d004714 <.LCFI0+0x58>
9d00477c:	24846810 	addiu	a0,a0,26640
9d004780:	24420000 	addiu	v0,v0,0
9d004784:	5040ffde 	beqzl	v0,9d004700 <.LCFI0+0x44>
9d004788:	3c02bf80 	lui	v0,0xbf80
9d00478c:	0c000000 	jal	90000000 <_bmxdudba_address+0x8ffe0000>
9d004790:	00000000 	nop
9d004794:	0b4011bb 	j	9d0046ec <.LCFI0+0x30>
9d004798:	8fbf0014 	lw	ra,20(sp)

Disassembly of section .text.general_exception:

9d00479c <_general_exception_context>:
9d00479c:	27bdffa8 	addiu	sp,sp,-88
9d0047a0:	afa10004 	sw	at,4(sp)
9d0047a4:	afa20008 	sw	v0,8(sp)
9d0047a8:	afa3000c 	sw	v1,12(sp)
9d0047ac:	afa40010 	sw	a0,16(sp)
9d0047b0:	afa50014 	sw	a1,20(sp)
9d0047b4:	afa60018 	sw	a2,24(sp)
9d0047b8:	afa7001c 	sw	a3,28(sp)
9d0047bc:	afa80020 	sw	t0,32(sp)
9d0047c0:	afa90024 	sw	t1,36(sp)
9d0047c4:	afaa0028 	sw	t2,40(sp)
9d0047c8:	afab002c 	sw	t3,44(sp)
9d0047cc:	afac0030 	sw	t4,48(sp)
9d0047d0:	afad0034 	sw	t5,52(sp)
9d0047d4:	afae0038 	sw	t6,56(sp)
9d0047d8:	afaf003c 	sw	t7,60(sp)
9d0047dc:	afb80040 	sw	t8,64(sp)
9d0047e0:	afb90044 	sw	t9,68(sp)
9d0047e4:	afbf0048 	sw	ra,72(sp)
9d0047e8:	00004012 	mflo	t0
9d0047ec:	afa8004c 	sw	t0,76(sp)
9d0047f0:	00004010 	mfhi	t0
9d0047f4:	afa80050 	sw	t0,80(sp)
9d0047f8:	3c1a9d00 	lui	k0,0x9d00
9d0047fc:	275a516c 	addiu	k0,k0,20844
9d004800:	00000000 	nop
9d004804:	40046800 	mfc0	a0,c0_cause
9d004808:	40056000 	mfc0	a1,c0_status
9d00480c:	0340f809 	jalr	k0
9d004810:	00000000 	nop
9d004814:	8fa80050 	lw	t0,80(sp)
9d004818:	01000011 	mthi	t0
9d00481c:	8fa8004c 	lw	t0,76(sp)
9d004820:	01000013 	mtlo	t0
9d004824:	8fa10004 	lw	at,4(sp)
9d004828:	8fa20008 	lw	v0,8(sp)
9d00482c:	8fa3000c 	lw	v1,12(sp)
9d004830:	8fa40010 	lw	a0,16(sp)
9d004834:	8fa50014 	lw	a1,20(sp)
9d004838:	8fa60018 	lw	a2,24(sp)
9d00483c:	8fa7001c 	lw	a3,28(sp)
9d004840:	8fa80020 	lw	t0,32(sp)
9d004844:	8fa90024 	lw	t1,36(sp)
9d004848:	8faa0028 	lw	t2,40(sp)
9d00484c:	8fab002c 	lw	t3,44(sp)
9d004850:	8fac0030 	lw	t4,48(sp)
9d004854:	8fad0034 	lw	t5,52(sp)
9d004858:	8fae0038 	lw	t6,56(sp)
9d00485c:	8faf003c 	lw	t7,60(sp)
9d004860:	8fb80040 	lw	t8,64(sp)
9d004864:	8fb90044 	lw	t9,68(sp)
9d004868:	8fbf0048 	lw	ra,72(sp)
9d00486c:	27bd0058 	addiu	sp,sp,88
9d004870:	000000c0 	ehb
9d004874:	42000018 	eret

Disassembly of section .text.libm:

9d004878 <fpmodf>:
9d004878:	00043dc2 30e700ff 3c088000 00043200     .=.....0...<.2..
9d004888:	00c83025 01044024 240100ff 10e10028     %0..$@.....$(...
9d004898:	00000000 00064825 00075025 00085825     ....%H..%P..%X..
9d0048a8:	240c009e 01876023 19800006 00000000     ...$#`..........
9d0048b8:	29810020 1020001c 00000000 01894806      ..).. ......H..
9d0048c8:	01894804                                .H..

9d0048cc <Dlab3>:
9d0048cc:	00096040 	sll	t4,t1,0x1
9d0048d0:	000c6242 	srl	t4,t4,0x9
9d0048d4:	000a6dc0 	sll	t5,t2,0x17
9d0048d8:	018d6025 	or	t4,t4,t5
9d0048dc:	018b6825 	or	t5,t4,t3
9d0048e0:	acad0000 	sw	t5,0(a1)
9d0048e4:	00ea6023 	subu	t4,a3,t2
9d0048e8:	2d810020 	sltiu	at,t4,32
9d0048ec:	14200002 	bnez	at,9d0048f8 <L2>
9d0048f0:	00000000 	nop
9d0048f4:	34090000 	li	t1,0x0

9d0048f8 <L2>:
9d0048f8:	01894806 	srlv	t1,t1,t4
9d0048fc:	00c93023 	subu	a2,a2,t1
9d004900:	10c00008 	beqz	a2,9d004924 <Dret2>
9d004904:	00000000 	nop
9d004908:	70cc6020 	clz	t4,a2
9d00490c:	00ec3823 	subu	a3,a3,t4
9d004910:	01863004 	sllv	a2,a2,t4

9d004914 <Dret>:
9d004914:	00063040 	sll	a2,a2,0x1
9d004918:	00063242 	srl	a2,a2,0x9
9d00491c:	00076dc0 	sll	t5,a3,0x17
9d004920:	00cd3025 	or	a2,a2,t5

9d004924 <Dret2>:
9d004924:	00c81025 	or	v0,a2,t0

9d004928 <D999>:
9d004928:	03e00008 	jr	ra
9d00492c:	00000000 	nop

9d004930 <Dzer>:
9d004930:	1000fff8 	b	9d004914 <Dret>
9d004934:	aca80000 	sw	t0,0(a1)

9d004938 <Dinfnan>:
9d004938:	3c04ffc0 	lui	a0,0xffc0
9d00493c:	aca40000 	sw	a0,0(a1)
9d004940:	1000fff9 	b	9d004928 <D999>
9d004944:	00041025 	or	v0,zero,a0
9d004948:	00000000 	nop

Disassembly of section .text._mon_putc:

9d00494c <_mon_putc>:
9d00494c:	27bdffe8 	addiu	sp,sp,-24

9d004950 <.LCFI0>:
9d004950:	afbf0014 	sw	ra,20(sp)
9d004954:	3c02a000 	lui	v0,0xa000
9d004958:	8c420004 	lw	v0,4(v0)
9d00495c:	1440000a 	bnez	v0,9d004988 <.LCFI0+0x38>
9d004960:	00802821 	move	a1,a0
9d004964:	3c020000 	lui	v0,0x0
9d004968:	24420000 	addiu	v0,v0,0
9d00496c:	10400025 	beqz	v0,9d004a04 <.LCFI0+0xb4>
9d004970:	3c020000 	lui	v0,0x0
9d004974:	0c000000 	jal	90000000 <_bmxdudba_address+0x8ffe0000>
9d004978:	00000000 	nop
9d00497c:	8fbf0014 	lw	ra,20(sp)
9d004980:	03e00008 	jr	ra
9d004984:	27bd0018 	addiu	sp,sp,24
9d004988:	24030001 	li	v1,1
9d00498c:	10430015 	beq	v0,v1,9d0049e4 <.LCFI0+0x94>
9d004990:	3c04bf80 	lui	a0,0xbf80
9d004994:	3c04bf80 	lui	a0,0xbf80
9d004998:	24846820 	addiu	a0,a0,26656
9d00499c:	3c02bf80 	lui	v0,0xbf80
9d0049a0:	24426818 	addiu	v0,v0,26648
9d0049a4:	3c06bf80 	lui	a2,0xbf80
9d0049a8:	24c66808 	addiu	a2,a2,26632
9d0049ac:	3c03bf80 	lui	v1,0xbf80
9d0049b0:	24636810 	addiu	v1,v1,26640
9d0049b4:	34078000 	li	a3,0x8000
9d0049b8:	acc70000 	sw	a3,0(a2)
9d0049bc:	24060400 	li	a2,1024
9d0049c0:	ac460000 	sw	a2,0(v0)
9d0049c4:	8c620000 	lw	v0,0(v1)
9d0049c8:	30420100 	andi	v0,v0,0x100
9d0049cc:	1040fffd 	beqz	v0,9d0049c4 <.LCFI0+0x74>
9d0049d0:	00000000 	nop
9d0049d4:	ac850000 	sw	a1,0(a0)
9d0049d8:	8fbf0014 	lw	ra,20(sp)
9d0049dc:	03e00008 	jr	ra
9d0049e0:	27bd0018 	addiu	sp,sp,24
9d0049e4:	24846020 	addiu	a0,a0,24608
9d0049e8:	3c02bf80 	lui	v0,0xbf80
9d0049ec:	24426018 	addiu	v0,v0,24600
9d0049f0:	3c06bf80 	lui	a2,0xbf80
9d0049f4:	24c66008 	addiu	a2,a2,24584
9d0049f8:	3c03bf80 	lui	v1,0xbf80
9d0049fc:	0b40126d 	j	9d0049b4 <.LCFI0+0x64>
9d004a00:	24636010 	addiu	v1,v1,24592
9d004a04:	24420000 	addiu	v0,v0,0
9d004a08:	5040ffe3 	beqzl	v0,9d004998 <.LCFI0+0x48>
9d004a0c:	3c04bf80 	lui	a0,0xbf80
9d004a10:	0c000000 	jal	90000000 <_bmxdudba_address+0x8ffe0000>
9d004a14:	00000000 	nop
9d004a18:	0b401260 	j	9d004980 <.LCFI0+0x30>
9d004a1c:	8fbf0014 	lw	ra,20(sp)

Disassembly of section .text.fputc:

9d004a20 <fputc>:
9d004a20:	27bdffe0 	addiu	sp,sp,-32
9d004a24:	afbf001c 	sw	ra,28(sp)
9d004a28:	afb10018 	sw	s1,24(sp)
9d004a2c:	afb00014 	sw	s0,20(sp)
9d004a30:	00a08021 	move	s0,a1
9d004a34:	8ca20018 	lw	v0,24(a1)
9d004a38:	00808821 	move	s1,a0
9d004a3c:	24050001 	li	a1,1
9d004a40:	8c420010 	lw	v0,16(v0)
9d004a44:	0040f809 	jalr	v0
9d004a48:	02002021 	move	a0,s0
9d004a4c:	1040000e 	beqz	v0,9d004a88 <fputc+0x68>
9d004a50:	2402ffff 	li	v0,-1
9d004a54:	8e020000 	lw	v0,0(s0)
9d004a58:	2442ffff 	addiu	v0,v0,-1
9d004a5c:	04400011 	bltz	v0,9d004aa4 <fputc+0x84>
9d004a60:	ae020000 	sw	v0,0(s0)
9d004a64:	96020010 	lhu	v0,16(s0)
9d004a68:	30420008 	andi	v0,v0,0x8
9d004a6c:	1440000b 	bnez	v0,9d004a9c <fputc+0x7c>
9d004a70:	2402000a 	li	v0,10
9d004a74:	8e030004 	lw	v1,4(s0)
9d004a78:	02201021 	move	v0,s1
9d004a7c:	24640001 	addiu	a0,v1,1
9d004a80:	ae040004 	sw	a0,4(s0)
9d004a84:	a0710000 	sb	s1,0(v1)
9d004a88:	8fbf001c 	lw	ra,28(sp)
9d004a8c:	8fb10018 	lw	s1,24(sp)
9d004a90:	8fb00014 	lw	s0,20(sp)
9d004a94:	03e00008 	jr	ra
9d004a98:	27bd0020 	addiu	sp,sp,32
9d004a9c:	5622fff6 	bnel	s1,v0,9d004a78 <fputc+0x58>
9d004aa0:	8e030004 	lw	v1,4(s0)
9d004aa4:	8e020018 	lw	v0,24(s0)
9d004aa8:	02202021 	move	a0,s1
9d004aac:	8c420004 	lw	v0,4(v0)
9d004ab0:	0040f809 	jalr	v0
9d004ab4:	02002821 	move	a1,s0
9d004ab8:	8fbf001c 	lw	ra,28(sp)
9d004abc:	8fb10018 	lw	s1,24(sp)
9d004ac0:	8fb00014 	lw	s0,20(sp)
9d004ac4:	03e00008 	jr	ra
9d004ac8:	27bd0020 	addiu	sp,sp,32

Disassembly of section .text.repl:

9d004acc <repl>:
9d004acc:	27bdffd8 	addiu	sp,sp,-40
9d004ad0:	afbf0024 	sw	ra,36(sp)
9d004ad4:	afb40020 	sw	s4,32(sp)
9d004ad8:	afb3001c 	sw	s3,28(sp)
9d004adc:	afb20018 	sw	s2,24(sp)
9d004ae0:	afb10014 	sw	s1,20(sp)
9d004ae4:	afb00010 	sw	s0,16(sp)
9d004ae8:	00a08021 	move	s0,a1
9d004aec:	0080a021 	move	s4,a0
9d004af0:	00c09821 	move	s3,a2
9d004af4:	24120020 	li	s2,32
9d004af8:	2411ffff 	li	s1,-1
9d004afc:	12000011 	beqz	s0,9d004b44 <repl+0x78>
9d004b00:	2e020021 	sltiu	v0,s0,33
9d004b04:	02401821 	move	v1,s2
9d004b08:	0202180b 	movn	v1,s0,v0
9d004b0c:	02602021 	move	a0,s3
9d004b10:	00602821 	move	a1,v1
9d004b14:	02803021 	move	a2,s4
9d004b18:	0f4013c2 	jal	9d004f08 <__sputn>
9d004b1c:	02038023 	subu	s0,s0,v1
9d004b20:	1451fff6 	bne	v0,s1,9d004afc <repl+0x30>
9d004b24:	8fbf0024 	lw	ra,36(sp)
9d004b28:	8fb40020 	lw	s4,32(sp)
9d004b2c:	8fb3001c 	lw	s3,28(sp)
9d004b30:	8fb20018 	lw	s2,24(sp)
9d004b34:	8fb10014 	lw	s1,20(sp)
9d004b38:	8fb00010 	lw	s0,16(sp)
9d004b3c:	03e00008 	jr	ra
9d004b40:	27bd0028 	addiu	sp,sp,40
9d004b44:	00001021 	move	v0,zero
9d004b48:	8fbf0024 	lw	ra,36(sp)
9d004b4c:	8fb40020 	lw	s4,32(sp)
9d004b50:	8fb3001c 	lw	s3,28(sp)
9d004b54:	8fb20018 	lw	s2,24(sp)
9d004b58:	8fb10014 	lw	s1,20(sp)
9d004b5c:	8fb00010 	lw	s0,16(sp)
9d004b60:	03e00008 	jr	ra
9d004b64:	27bd0028 	addiu	sp,sp,40

Disassembly of section .text.fpcmp:

9d004b68 <__eqsf2>:
9d004b68:	2408fffe 00043040 00053840 00c74825     ...$@0..@8..%H..
9d004b78:	1120001b 00000000 3c01ff00 34210001     .. ........<..!4
9d004b88:	00c1082b 1020001a 00000000 3c01ff00     +..... ........<
9d004b98:	34210001 00e1082b 10200015 00000000     ..!4+..... .....
9d004ba8:	04810002 00063042 00063023              ....B0..#0..

9d004bb4 <i48>:
9d004bb4:	04a10002 	bgez	a1,9d004bc0 <i49>
9d004bb8:	00073842 	srl	a3,a3,0x1
9d004bbc:	00073823 	negu	a3,a3

9d004bc0 <i49>:
9d004bc0:	00c7082a 	slt	at,a2,a3
9d004bc4:	10200003 	beqz	at,9d004bd4 <i50>
9d004bc8:	00000000 	nop
9d004bcc:	10000007 	b	9d004bec <J999>
9d004bd0:	2402ffff 	li	v0,-1

9d004bd4 <i50>:
9d004bd4:	00e6082a 	slt	at,a3,a2
9d004bd8:	10200003 	beqz	at,9d004be8 <Jequ>
9d004bdc:	00000000 	nop
9d004be0:	10000002 	b	9d004bec <J999>
9d004be4:	24020001 	li	v0,1

9d004be8 <Jequ>:
9d004be8:	24020000 	li	v0,0

9d004bec <J999>:
9d004bec:	03e00008 	jr	ra
9d004bf0:	00000000 	nop
9d004bf4:	00000000 	nop

9d004bf8 <Jnan>:
9d004bf8:	1000fffc 	b	9d004bec <J999>
9d004bfc:	00081025 	or	v0,zero,t0
9d004c00:	00000000 	nop

Disassembly of section .text.strlen:

9d004c04 <strlen>:
9d004c04:	30830003 	andi	v1,a0,0x3
9d004c08:	1460001e 	bnez	v1,9d004c84 <strlen+0x80>
9d004c0c:	00801021 	move	v0,a0
9d004c10:	8c820000 	lw	v0,0(a0)
9d004c14:	3c07fefe 	lui	a3,0xfefe
9d004c18:	34e7feff 	ori	a3,a3,0xfeff
9d004c1c:	00471821 	addu	v1,v0,a3
9d004c20:	00021027 	nor	v0,zero,v0
9d004c24:	3c068080 	lui	a2,0x8080
9d004c28:	34c68080 	ori	a2,a2,0x8080
9d004c2c:	00621824 	and	v1,v1,v0
9d004c30:	00661824 	and	v1,v1,a2
9d004c34:	14600013 	bnez	v1,9d004c84 <strlen+0x80>
9d004c38:	00801021 	move	v0,a0
9d004c3c:	24420004 	addiu	v0,v0,4
9d004c40:	8c430000 	lw	v1,0(v0)
9d004c44:	00672821 	addu	a1,v1,a3
9d004c48:	00031827 	nor	v1,zero,v1
9d004c4c:	00a31824 	and	v1,a1,v1
9d004c50:	00661824 	and	v1,v1,a2
9d004c54:	5460000c 	bnezl	v1,9d004c88 <strlen+0x84>
9d004c58:	80430000 	lb	v1,0(v0)
9d004c5c:	24420004 	addiu	v0,v0,4
9d004c60:	8c430000 	lw	v1,0(v0)
9d004c64:	00672821 	addu	a1,v1,a3
9d004c68:	00031827 	nor	v1,zero,v1
9d004c6c:	00a31824 	and	v1,a1,v1
9d004c70:	00661824 	and	v1,v1,a2
9d004c74:	5060fff2 	beqzl	v1,9d004c40 <strlen+0x3c>
9d004c78:	24420004 	addiu	v0,v0,4
9d004c7c:	0b401322 	j	9d004c88 <strlen+0x84>
9d004c80:	80430000 	lb	v1,0(v0)
9d004c84:	80430000 	lb	v1,0(v0)
9d004c88:	5460fffe 	bnezl	v1,9d004c84 <strlen+0x80>
9d004c8c:	24420001 	addiu	v0,v0,1
9d004c90:	03e00008 	jr	ra
9d004c94:	00441023 	subu	v0,v0,a0

Disassembly of section .text:

9d004c98 <__pic32_data_init>:
9d004c98:	03e01821 	move	v1,ra

9d004c9c <_dinit_init>:
9d004c9c:	3c089d00 	lui	t0,0x9d00
9d004ca0:	25084240 	addiu	t0,t0,16960
9d004ca4:	8d090000 	lw	t1,0(t0)
9d004ca8:	11200018 	beqz	t1,9d004d0c <_dinit_end+0x18>
9d004cac:	25080004 	addiu	t0,t0,4
9d004cb0:	8d0a0000 	lw	t2,0(t0)
9d004cb4:	25080004 	addiu	t0,t0,4
9d004cb8:	8d0b0000 	lw	t3,0(t0)
9d004cbc:	11600009 	beqz	t3,9d004ce4 <_dinit_clear>
9d004cc0:	25080004 	addiu	t0,t0,4

9d004cc4 <_dinit_copy>:
9d004cc4:	910c0000 	lbu	t4,0(t0)
9d004cc8:	254affff 	addiu	t2,t2,-1
9d004ccc:	25080001 	addiu	t0,t0,1
9d004cd0:	a12c0000 	sb	t4,0(t1)
9d004cd4:	1540fffb 	bnez	t2,9d004cc4 <_dinit_copy>
9d004cd8:	25290001 	addiu	t1,t1,1
9d004cdc:	10000005 	b	9d004cf4 <_dinit_end>
9d004ce0:	00000000 	nop

9d004ce4 <_dinit_clear>:
9d004ce4:	a1200000 	sb	zero,0(t1)
9d004ce8:	254affff 	addiu	t2,t2,-1
9d004cec:	1540fffd 	bnez	t2,9d004ce4 <_dinit_clear>
9d004cf0:	25290001 	addiu	t1,t1,1

9d004cf4 <_dinit_end>:
9d004cf4:	25080003 	addiu	t0,t0,3
9d004cf8:	240afffc 	li	t2,-4
9d004cfc:	01484024 	and	t0,t2,t0
9d004d00:	8d090000 	lw	t1,0(t0)
9d004d04:	1520ffe7 	bnez	t1,9d004ca4 <_dinit_init+0x8>
9d004d08:	00000000 	nop
9d004d0c:	0060f821 	move	ra,v1
9d004d10:	03e00008 	jr	ra
9d004d14:	00000000 	nop
9d004d18:	00000000 	nop

Disassembly of section .text._fflush_simple:

9d004d1c <_fflush_simple>:
9d004d1c:	27bdffe8 	addiu	sp,sp,-24
9d004d20:	afbf0014 	sw	ra,20(sp)
9d004d24:	afb00010 	sw	s0,16(sp)
9d004d28:	94820010 	lhu	v0,16(a0)
9d004d2c:	30420002 	andi	v0,v0,0x2
9d004d30:	10400013 	beqz	v0,9d004d80 <_fflush_simple+0x64>
9d004d34:	00808021 	move	s0,a0
9d004d38:	8c850000 	lw	a1,0(a0)
9d004d3c:	04a0000c 	bltz	a1,9d004d70 <_fflush_simple+0x54>
9d004d40:	00001021 	move	v0,zero
9d004d44:	8c82000c 	lw	v0,12(a0)
9d004d48:	50a20006 	beql	a1,v0,9d004d64 <_fflush_simple+0x48>
9d004d4c:	8e030008 	lw	v1,8(s0)
9d004d50:	8c840008 	lw	a0,8(a0)
9d004d54:	0f401436 	jal	9d0050d8 <.LFE0>
9d004d58:	00452823 	subu	a1,v0,a1
9d004d5c:	8e02000c 	lw	v0,12(s0)
9d004d60:	8e030008 	lw	v1,8(s0)
9d004d64:	ae020000 	sw	v0,0(s0)
9d004d68:	ae030004 	sw	v1,4(s0)
9d004d6c:	00001021 	move	v0,zero
9d004d70:	8fbf0014 	lw	ra,20(sp)
9d004d74:	8fb00010 	lw	s0,16(sp)
9d004d78:	03e00008 	jr	ra
9d004d7c:	27bd0018 	addiu	sp,sp,24
9d004d80:	2402ffff 	li	v0,-1
9d004d84:	ac820004 	sw	v0,4(a0)
9d004d88:	00001021 	move	v0,zero
9d004d8c:	8fbf0014 	lw	ra,20(sp)
9d004d90:	8fb00010 	lw	s0,16(sp)
9d004d94:	03e00008 	jr	ra
9d004d98:	27bd0018 	addiu	sp,sp,24

Disassembly of section .text._fwrite_simple:

9d004d9c <_fwrite_simple>:
9d004d9c:	27bdffd8 	addiu	sp,sp,-40
9d004da0:	afbf0024 	sw	ra,36(sp)
9d004da4:	afb10020 	sw	s1,32(sp)
9d004da8:	afb0001c 	sw	s0,28(sp)
9d004dac:	70c58002 	mul	s0,a2,a1
9d004db0:	12000007 	beqz	s0,9d004dd0 <_fwrite_simple+0x34>
9d004db4:	00001021 	move	v0,zero
9d004db8:	94e30010 	lhu	v1,16(a3)
9d004dbc:	30630001 	andi	v1,v1,0x1
9d004dc0:	10600008 	beqz	v1,9d004de4 <_fwrite_simple+0x48>
9d004dc4:	3c03a000 	lui	v1,0xa000
9d004dc8:	24040009 	li	a0,9
9d004dcc:	ac640010 	sw	a0,16(v1)
9d004dd0:	8fbf0024 	lw	ra,36(sp)
9d004dd4:	8fb10020 	lw	s1,32(sp)
9d004dd8:	8fb0001c 	lw	s0,28(sp)
9d004ddc:	03e00008 	jr	ra
9d004de0:	27bd0028 	addiu	sp,sp,40
9d004de4:	00808821 	move	s1,a0
9d004de8:	00e02021 	move	a0,a3
9d004dec:	0f401347 	jal	9d004d1c <_fflush_simple>
9d004df0:	afa60010 	sw	a2,16(sp)
9d004df4:	02202021 	move	a0,s1
9d004df8:	0f401436 	jal	9d0050d8 <.LFE0>
9d004dfc:	02002821 	move	a1,s0
9d004e00:	8fa60010 	lw	a2,16(sp)
9d004e04:	00c01021 	move	v0,a2
9d004e08:	8fbf0024 	lw	ra,36(sp)
9d004e0c:	8fb10020 	lw	s1,32(sp)
9d004e10:	8fb0001c 	lw	s0,28(sp)
9d004e14:	03e00008 	jr	ra
9d004e18:	27bd0028 	addiu	sp,sp,40

Disassembly of section .text.fptoli:

9d004e1c <__fixsfsi>:
9d004e1c:	00042a00 3c018000 00a12825 00043dc2     .*.....<%(...=..
9d004e2c:	30e700ff 2406009e 00c73023 18c0000d     ...0...$#0......
9d004e3c:	00000000 28c10020 14200003 00000000     .... ..(.. .....
9d004e4c:	10000005 24020000                       .......$

9d004e54 <i42>:
9d004e54:	04810002 	bgez	a0,9d004e60 <i43>
9d004e58:	00c52806 	srlv	a1,a1,a2
9d004e5c:	00052823 	negu	a1,a1

9d004e60 <i43>:
9d004e60:	00051025 	or	v0,zero,a1

9d004e64 <G999>:
9d004e64:	03e00008 	jr	ra
9d004e68:	00000000 	nop
9d004e6c:	00000000 	nop

9d004e70 <Gspec>:
9d004e70:	3c017f80 	lui	at,0x7f80
9d004e74:	34210001 	ori	at,at,0x1
9d004e78:	0081082b 	sltu	at,a0,at
9d004e7c:	14200003 	bnez	at,9d004e8c <i44>
9d004e80:	00000000 	nop
9d004e84:	1000fff7 	b	9d004e64 <G999>
9d004e88:	3c028000 	lui	v0,0x8000

9d004e8c <i44>:
9d004e8c:	3c027fff 	lui	v0,0x7fff
9d004e90:	1000fff4 	b	9d004e64 <G999>
9d004e94:	3442ffff 	ori	v0,v0,0xffff
9d004e98:	00000000 	nop

Disassembly of section .text._sprintf_cdfFnopuxX:

9d004e9c <_sprintf_cdfFnopuxX>:
9d004e9c:	27bdffc8 	addiu	sp,sp,-56
9d004ea0:	afbf0034 	sw	ra,52(sp)
9d004ea4:	27a20040 	addiu	v0,sp,64
9d004ea8:	00801821 	move	v1,a0
9d004eac:	afa60040 	sw	a2,64(sp)
9d004eb0:	27a40010 	addiu	a0,sp,16
9d004eb4:	00403021 	move	a2,v0
9d004eb8:	afa70044 	sw	a3,68(sp)
9d004ebc:	2407ffff 	li	a3,-1
9d004ec0:	a7a70022 	sh	a3,34(sp)
9d004ec4:	24070082 	li	a3,130
9d004ec8:	a7a70020 	sh	a3,32(sp)
9d004ecc:	3c077fff 	lui	a3,0x7fff
9d004ed0:	34e7fffe 	ori	a3,a3,0xfffe
9d004ed4:	afa70010 	sw	a3,16(sp)
9d004ed8:	afa30018 	sw	v1,24(sp)
9d004edc:	afa30014 	sw	v1,20(sp)
9d004ee0:	3c039d00 	lui	v1,0x9d00
9d004ee4:	24635378 	addiu	v1,v1,21368
9d004ee8:	afa30028 	sw	v1,40(sp)
9d004eec:	0f400780 	jal	9d001e00 <_do_print_cdfFnopuxX>
9d004ef0:	afa2002c 	sw	v0,44(sp)
9d004ef4:	8fa30014 	lw	v1,20(sp)
9d004ef8:	a0600000 	sb	zero,0(v1)
9d004efc:	8fbf0034 	lw	ra,52(sp)
9d004f00:	03e00008 	jr	ra
9d004f04:	27bd0038 	addiu	sp,sp,56

Disassembly of section .text.__sputn:

9d004f08 <__sputn>:
9d004f08:	27bdffd8 	addiu	sp,sp,-40
9d004f0c:	afbf0024 	sw	ra,36(sp)
9d004f10:	afb30020 	sw	s3,32(sp)
9d004f14:	afb2001c 	sw	s2,28(sp)
9d004f18:	afb10018 	sw	s1,24(sp)
9d004f1c:	afb00014 	sw	s0,20(sp)
9d004f20:	00808021 	move	s0,a0
9d004f24:	00c09021 	move	s2,a2
9d004f28:	00858821 	addu	s1,a0,a1
9d004f2c:	0b4013d2 	j	9d004f48 <__sputn+0x40>
9d004f30:	2413ffff 	li	s3,-1
9d004f34:	26100001 	addiu	s0,s0,1
9d004f38:	0f401288 	jal	9d004a20 <.LFE0>
9d004f3c:	8204ffff 	lb	a0,-1(s0)
9d004f40:	10530005 	beq	v0,s3,9d004f58 <__sputn+0x50>
9d004f44:	8fbf0024 	lw	ra,36(sp)
9d004f48:	1611fffa 	bne	s0,s1,9d004f34 <__sputn+0x2c>
9d004f4c:	02402821 	move	a1,s2
9d004f50:	00001021 	move	v0,zero
9d004f54:	8fbf0024 	lw	ra,36(sp)
9d004f58:	8fb30020 	lw	s3,32(sp)
9d004f5c:	8fb2001c 	lw	s2,28(sp)
9d004f60:	8fb10018 	lw	s1,24(sp)
9d004f64:	8fb00014 	lw	s0,20(sp)
9d004f68:	03e00008 	jr	ra
9d004f6c:	27bd0028 	addiu	sp,sp,40

Disassembly of section .rodata:

9d004f70 <zeroData-0x1c>:
9d004f70:	004e614e 	0x4e614e
9d004f74:	666e492d 	0x666e492d
9d004f78:	00000000 	nop
9d004f7c:	666e492b 	0x666e492b
9d004f80:	00000000 	nop
9d004f84:	6c756e28 	0x6c756e28
9d004f88:	0000296c 	0x296c

9d004f8c <zeroData>:
9d004f8c:	30303030 30303030 30303030 30303030     0000000000000000
9d004f9c:	30303030 30303030 30303030 30303030     0000000000000000

9d004fac <spaceData>:
9d004fac:	20202020 20202020 20202020 20202020                     
9d004fbc:	20202020 20202020 20202020 20202020                     
9d004fcc:	41200000 3c23d70a 40800000              .. A..#<...@

Disassembly of section .text.sitofp:

9d004fd8 <__floatsisf>:
9d004fd8:	3c018000 10800012 00813024 04810002     ...<....$0......
9d004fe8:	00000000 00042023                       ....# ..

9d004ff0 <i40>:
9d004ff0:	2405009e 	li	a1,158
9d004ff4:	70873820 	clz	a3,a0
9d004ff8:	00a72823 	subu	a1,a1,a3
9d004ffc:	00e42004 	sllv	a0,a0,a3
9d005000:	24840080 	addiu	a0,a0,128
9d005004:	2c880080 	sltiu	t0,a0,128
9d005008:	00a82821 	addu	a1,a1,t0
9d00500c:	00044203 	sra	t0,a0,0x8
9d005010:	31080001 	andi	t0,t0,0x1
9d005014:	00882023 	subu	a0,a0,t0
9d005018:	00042040 	sll	a0,a0,0x1
9d00501c:	00042242 	srl	a0,a0,0x9
9d005020:	000545c0 	sll	t0,a1,0x17
9d005024:	00882025 	or	a0,a0,t0

9d005028 <i39>:
9d005028:	00861025 	or	v0,a0,a2

9d00502c <E999>:
9d00502c:	03e00008 	jr	ra
9d005030:	00000000 	nop
9d005034:	00000000 	nop

Disassembly of section .text.main_entry:

9d005038 <_main_entry>:
9d005038:	3c040000 	lui	a0,0x0
9d00503c:	27bdffe8 	addiu	sp,sp,-24
9d005040:	24840000 	addiu	a0,a0,0
9d005044:	10800003 	beqz	a0,9d005054 <_main_entry+0x1c>
9d005048:	afbf0014 	sw	ra,20(sp)
9d00504c:	0080f809 	jalr	a0
9d005050:	00000000 	nop
9d005054:	30840000 	andi	a0,a0,0x0
9d005058:	30a50000 	andi	a1,a1,0x0
9d00505c:	3c089d00 	lui	t0,0x9d00
9d005060:	25083938 	addiu	t0,t0,14648
9d005064:	0100f809 	jalr	t0
9d005068:	00000000 	nop

9d00506c <__crt0_exit>:
9d00506c:	3c020000 24420000 10400003 00000000     ...<..B$..@.....
9d00507c:	0040f809 00000000 1000fff9 00000000     ..@.............

Disassembly of section .text:

9d00508c <__floatunsisf>:
9d00508c:	27bdffe8 	addiu	sp,sp,-24
9d005090:	afbf0014 	sw	ra,20(sp)
9d005094:	04800006 	bltz	a0,9d0050b0 <__floatunsisf+0x24>
9d005098:	00801021 	move	v0,a0
9d00509c:	0f4013f6 	jal	9d004fd8 <__floatsisf>
9d0050a0:	00000000 	nop
9d0050a4:	8fbf0014 	lw	ra,20(sp)
9d0050a8:	03e00008 	jr	ra
9d0050ac:	27bd0018 	addiu	sp,sp,24
9d0050b0:	00042042 	srl	a0,a0,0x1
9d0050b4:	30420001 	andi	v0,v0,0x1
9d0050b8:	0f4013f6 	jal	9d004fd8 <__floatsisf>
9d0050bc:	00822025 	or	a0,a0,v0
9d0050c0:	00402021 	move	a0,v0
9d0050c4:	0f400e88 	jal	9d003a20 <__addsf3>
9d0050c8:	00402821 	move	a1,v0
9d0050cc:	8fbf0014 	lw	ra,20(sp)
9d0050d0:	03e00008 	jr	ra
9d0050d4:	27bd0018 	addiu	sp,sp,24

Disassembly of section .text._mon_write:

9d0050d8 <_mon_write>:
9d0050d8:	27bdffe0 	addiu	sp,sp,-32

9d0050dc <.LCFI0>:
9d0050dc:	afbf001c 	sw	ra,28(sp)
9d0050e0:	afb10018 	sw	s1,24(sp)
9d0050e4:	afb00014 	sw	s0,20(sp)
9d0050e8:	10800009 	beqz	a0,9d005110 <.LCFI0+0x34>
9d0050ec:	00808021 	move	s0,a0
9d0050f0:	10a00007 	beqz	a1,9d005110 <.LCFI0+0x34>
9d0050f4:	00a08821 	move	s1,a1
9d0050f8:	82040000 	lb	a0,0(s0)
9d0050fc:	2631ffff 	addiu	s1,s1,-1
9d005100:	0f401253 	jal	9d00494c <_mon_putc>
9d005104:	26100001 	addiu	s0,s0,1
9d005108:	5620fffc 	bnezl	s1,9d0050fc <.LCFI0+0x20>
9d00510c:	82040000 	lb	a0,0(s0)
9d005110:	8fbf001c 	lw	ra,28(sp)
9d005114:	8fb10018 	lw	s1,24(sp)
9d005118:	8fb00014 	lw	s0,20(sp)
9d00511c:	03e00008 	jr	ra
9d005120:	27bd0020 	addiu	sp,sp,32

Disassembly of section .text._bootstrap_exception_handler:

9d005124 <_bootstrap_exception_handler>:
9d005124:	3c020000 	lui	v0,0x0
9d005128:	24420000 	addiu	v0,v0,0
9d00512c:	10400005 	beqz	v0,9d005144 <_bootstrap_exception_handler+0x20>
9d005130:	3c020000 	lui	v0,0x0
9d005134:	24420000 	addiu	v0,v0,0
9d005138:	10400003 	beqz	v0,9d005148 <_bootstrap_exception_handler+0x24>
9d00513c:	3c029d00 	lui	v0,0x9d00
9d005140:	7000003f 	sdbbp
9d005144:	3c029d00 	lui	v0,0x9d00
9d005148:	244251fc 	addiu	v0,v0,20988
9d00514c:	10400005 	beqz	v0,9d005164 <.LCFI2>
9d005150:	00000000 	nop
9d005154:	27bdffe8 	addiu	sp,sp,-24

9d005158 <.LCFI0>:
9d005158:	afbf0014 	sw	ra,20(sp)
9d00515c:	0040f809 	jalr	v0
9d005160:	00000000 	nop

9d005164 <.LCFI2>:
9d005164:	0b401459 	j	9d005164 <.LCFI2>
9d005168:	00000000 	nop

Disassembly of section .text._general_exception_handler:

9d00516c <_general_exception_handler>:
9d00516c:	3c020000 	lui	v0,0x0
9d005170:	24420000 	addiu	v0,v0,0
9d005174:	10400005 	beqz	v0,9d00518c <_general_exception_handler+0x20>
9d005178:	3c020000 	lui	v0,0x0
9d00517c:	24420000 	addiu	v0,v0,0
9d005180:	10400003 	beqz	v0,9d005190 <_general_exception_handler+0x24>
9d005184:	3c029d00 	lui	v0,0x9d00
9d005188:	7000003f 	sdbbp
9d00518c:	3c029d00 	lui	v0,0x9d00
9d005190:	244251fc 	addiu	v0,v0,20988
9d005194:	10400005 	beqz	v0,9d0051ac <.LCFI2>
9d005198:	00000000 	nop
9d00519c:	27bdffe8 	addiu	sp,sp,-24

9d0051a0 <.LCFI0>:
9d0051a0:	afbf0014 	sw	ra,20(sp)
9d0051a4:	0040f809 	jalr	v0
9d0051a8:	00000000 	nop

9d0051ac <.LCFI2>:
9d0051ac:	0b40146b 	j	9d0051ac <.LCFI2>
9d0051b0:	00000000 	nop

Disassembly of section .vector_default:

9d0051b4 <_DefaultInterrupt>:
9d0051b4:	3c020000 	lui	v0,0x0
9d0051b8:	24420000 	addiu	v0,v0,0
9d0051bc:	10400007 	beqz	v0,9d0051dc <_DefaultInterrupt+0x28>
9d0051c0:	3c020000 	lui	v0,0x0
9d0051c4:	24420000 	addiu	v0,v0,0
9d0051c8:	50400005 	beqzl	v0,9d0051e0 <_DefaultInterrupt+0x2c>
9d0051cc:	3c029d00 	lui	v0,0x9d00
9d0051d0:	7000003f 	sdbbp
9d0051d4:	03e00008 	jr	ra
9d0051d8:	00000000 	nop
9d0051dc:	3c029d00 	lui	v0,0x9d00
9d0051e0:	244251fc 	addiu	v0,v0,20988
9d0051e4:	10400003 	beqz	v0,9d0051f4 <_DefaultInterrupt+0x40>
9d0051e8:	00000000 	nop
9d0051ec:	0040f809 	jalr	v0
9d0051f0:	00000000 	nop
9d0051f4:	03e00008 	jr	ra
9d0051f8:	00000000 	nop

Disassembly of section .text:

9d0051fc <__pic32_software_reset>:
9d0051fc:	41606000 	di
9d005200:	000000c0 	ehb
9d005204:	3c03aa99 	lui	v1,0xaa99
9d005208:	3c02bf81 	lui	v0,0xbf81
9d00520c:	24636655 	addiu	v1,v1,26197
9d005210:	ac40f230 	sw	zero,-3536(v0)
9d005214:	ac43f230 	sw	v1,-3536(v0)
9d005218:	3c035566 	lui	v1,0x5566
9d00521c:	346399aa 	ori	v1,v1,0x99aa
9d005220:	ac43f230 	sw	v1,-3536(v0)
9d005224:	3c02bf81 	lui	v0,0xbf81
9d005228:	24030001 	li	v1,1
9d00522c:	ac43f618 	sw	v1,-2536(v0)
9d005230:	3c02bf81 	lui	v0,0xbf81
9d005234:	8c42f610 	lw	v0,-2544(v0)
9d005238:	0b401481 	j	9d005204 <__pic32_software_reset+0x8>
9d00523c:	00000000 	nop

Disassembly of section .text._filbuf_simple:

9d005240 <_filbuf_simple>:
9d005240:	8c820004 	lw	v0,4(a0)
9d005244:	2403ffff 	li	v1,-1
9d005248:	10430003 	beq	v0,v1,9d005258 <_filbuf_simple+0x18>
9d00524c:	ac800000 	sw	zero,0(a0)
9d005250:	03e00008 	jr	ra
9d005254:	ac830004 	sw	v1,4(a0)
9d005258:	27bdffe8 	addiu	sp,sp,-24
9d00525c:	afbf0014 	sw	ra,20(sp)
9d005260:	0f4011ae 	jal	9d0046b8 <_mon_getc>
9d005264:	24040001 	li	a0,1
9d005268:	8fbf0014 	lw	ra,20(sp)
9d00526c:	03e00008 	jr	ra
9d005270:	27bd0018 	addiu	sp,sp,24

Disassembly of section .text._fsync_simple:

9d005274 <_fsync_simple>:
9d005274:	94830010 	lhu	v1,16(a0)
9d005278:	00a32824 	and	a1,a1,v1
9d00527c:	10a00007 	beqz	a1,9d00529c <_fsync_simple+0x28>
9d005280:	24020001 	li	v0,1
9d005284:	34630040 	ori	v1,v1,0x40
9d005288:	a4830010 	sh	v1,16(a0)
9d00528c:	24030009 	li	v1,9
9d005290:	3c02a000 	lui	v0,0xa000
9d005294:	ac430010 	sw	v1,16(v0)
9d005298:	00001021 	move	v0,zero
9d00529c:	03e00008 	jr	ra
9d0052a0:	00000000 	nop

Disassembly of section .rodata:

9d0052a4 <.LC0>:
9d0052a4:	206e6970 	addi	t6,v1,26992
9d0052a8:	203a3042 	addi	k0,at,12354
9d0052ac:	20753425 	addi	s5,v1,13349
9d0052b0:	2e352528 	sltiu	s5,s1,9512
9d0052b4:	76206633 	jalx	988198cc <_bmxdudba_address+0x987f98cc>
9d0052b8:	73746c6f 	0x73746c6f
9d0052bc:	0a0d2029 	j	983480a4 <_bmxdudba_address+0x983280a4>
9d0052c0:	00000000 	nop
9d0052c4:	3b533333 	xori	s3,k0,0x3333

Disassembly of section .text.putchar:

9d0052c8 <putchar>:
9d0052c8:	27bdffe8 	addiu	sp,sp,-24
9d0052cc:	afbf0014 	sw	ra,20(sp)
9d0052d0:	3c02a000 	lui	v0,0xa000
9d0052d4:	8c420000 	lw	v0,0(v0)
9d0052d8:	0f401288 	jal	9d004a20 <.LFE0>
9d0052dc:	8c450004 	lw	a1,4(v0)
9d0052e0:	8fbf0014 	lw	ra,20(sp)
9d0052e4:	03e00008 	jr	ra
9d0052e8:	27bd0018 	addiu	sp,sp,24

Disassembly of section .text._vfprintf_cdfFnopuxX:

9d0052ec <_vfprintf_cdfFnopuxX>:
9d0052ec:	27bdffe8 	addiu	sp,sp,-24
9d0052f0:	afbf0014 	sw	ra,20(sp)
9d0052f4:	0f400780 	jal	9d001e00 <_do_print_cdfFnopuxX>
9d0052f8:	00000000 	nop
9d0052fc:	8fbf0014 	lw	ra,20(sp)
9d005300:	03e00008 	jr	ra
9d005304:	27bd0018 	addiu	sp,sp,24

Disassembly of section .text.putc:

9d005308 <putc>:
9d005308:	27bdffe8 	addiu	sp,sp,-24
9d00530c:	afbf0014 	sw	ra,20(sp)
9d005310:	0f401288 	jal	9d004a20 <.LFE0>
9d005314:	00000000 	nop
9d005318:	8fbf0014 	lw	ra,20(sp)
9d00531c:	03e00008 	jr	ra
9d005320:	27bd0018 	addiu	sp,sp,24

Disassembly of section .text:

9d005324 <_nmi_handler>:
9d005324:	401a6000 	mfc0	k0,c0_status
9d005328:	3c1bffbf 	lui	k1,0xffbf
9d00532c:	377bffff 	ori	k1,k1,0xffff
9d005330:	035bd024 	and	k0,k0,k1
9d005334:	409a6000 	mtc0	k0,c0_status
9d005338:	42000018 	eret

Disassembly of section .text._io_exit:

9d00533c <_io_exit>:
9d00533c:	3c02a000 	lui	v0,0xa000
9d005340:	8c420000 	lw	v0,0(v0)
9d005344:	24030001 	li	v1,1
9d005348:	03e00008 	jr	ra
9d00534c:	ac430038 	sw	v1,56(v0)

Disassembly of section .rodata:

9d005350 <_io_funcs>:
9d005350:	9d005240 9d0045bc 9d004d1c 9d004d9c     @R...E...M...M..
9d005360:	9d005274                                tR..

Disassembly of section .text._io_exit:

9d005364 <.text._io_exit>:
9d005364:	3c02a000 	lui	v0,0xa000
9d005368:	8c420000 	lw	v0,0(v0)
9d00536c:	24030001 	li	v1,1
9d005370:	03e00008 	jr	ra
9d005374:	ac430038 	sw	v1,56(v0)

Disassembly of section .rodata:

9d005378 <_io_strfuncs>:
9d005378:	9d00539c 9d0053a4 9d0053ac 9d0053b4     .S...S...S...S..
9d005388:	9d0053bc                                .S..

Disassembly of section .text._on_reset:

9d00538c <_on_reset>:
9d00538c:	03e00008 	jr	ra
9d005390:	00000000 	nop

Disassembly of section .text._on_bootstrap:

9d005394 <_on_bootstrap>:
9d005394:	03e00008 	jr	ra
9d005398:	00000000 	nop

Disassembly of section .text._filbuf_string:

9d00539c <_filbuf_string>:
9d00539c:	03e00008 	jr	ra
9d0053a0:	2402ffff 	li	v0,-1

Disassembly of section .text._flsbuf_string:

9d0053a4 <_flsbuf_string>:
9d0053a4:	03e00008 	jr	ra
9d0053a8:	00801021 	move	v0,a0

Disassembly of section .text._fflush_string:

9d0053ac <_fflush_string>:
9d0053ac:	03e00008 	jr	ra
9d0053b0:	00001021 	move	v0,zero

Disassembly of section .text._fwrite_string:

9d0053b4 <_fwrite_string>:
9d0053b4:	03e00008 	jr	ra
9d0053b8:	00001021 	move	v0,zero

Disassembly of section .text._fsync_string:

9d0053bc <_fsync_string>:
9d0053bc:	03e00008 	jr	ra
9d0053c0:	24020001 	li	v0,1
